	.file	"main.cpp"
	.text
.Ltext0:
	.cfi_sections	.debug_frame
	.file 0 "C://Users//zhb15//Desktop//test//code//build" "C:/Users/zhb15/Desktop/test/code/source/main.cpp"
	.section	.text$_ZNK5boost10wrapexceptISt13runtime_errorE7rethrowEv,"x"
	.linkonce discard
	.align 2
	.globl	_ZNK5boost10wrapexceptISt13runtime_errorE7rethrowEv
	.def	_ZNK5boost10wrapexceptISt13runtime_errorE7rethrowEv;	.scl	2;	.type	32;	.endef
	.seh_proc	_ZNK5boost10wrapexceptISt13runtime_errorE7rethrowEv
_ZNK5boost10wrapexceptISt13runtime_errorE7rethrowEv:
.LVL0:
.LFB3801:
	.file 1 "D:/Compiler/anaconda/Library/include/boost/throw_exception.hpp"
	.loc 1 123 18 view -0
	.cfi_startproc
	.loc 1 123 18 is_stmt 0 view .LVU1
	pushq	%rdi
	.seh_pushreg	%rdi
	.cfi_def_cfa_offset 16
	.cfi_offset 5, -16
	pushq	%rsi
	.seh_pushreg	%rsi
	.cfi_def_cfa_offset 24
	.cfi_offset 4, -24
	pushq	%rbx
	.seh_pushreg	%rbx
	.cfi_def_cfa_offset 32
	.cfi_offset 3, -32
	subq	$32, %rsp
	.seh_stackalloc	32
	.cfi_def_cfa_offset 64
	.seh_endprologue
	.loc 1 123 18 view .LVU2
	movq	%rcx, %rsi
	.loc 1 131 9 view .LVU3
	movl	$64, %ecx
.LVL1:
	.loc 1 131 9 view .LVU4
	call	__cxa_allocate_exception
.LVL2:
.LBB346:
.LBB347:
.LBB348:
	.loc 1 71 69 discriminator 1 view .LVU5
	leaq	8(%rsi), %rdx
.LBE348:
.LBE347:
.LBE346:
	.loc 1 131 9 view .LVU6
	movq	%rax, %rbx
.LVL3:
.LBB386:
.LBI346:
	.loc 1 71 69 is_stmt 1 view .LVU7
.LBB383:
.LBB380:
.LBB349:
.LBI349:
	.file 2 "D:/Compiler/anaconda/Library/include/boost/exception/exception.hpp"
	.loc 2 476 9 view .LVU8
.LBB350:
.LBB351:
	leaq	16+_ZTVN5boost16exception_detail10clone_baseE(%rip), %rax
.LVL4:
	.loc 2 476 9 is_stmt 0 view .LVU9
.LBE351:
.LBE350:
.LBE349:
	.loc 1 71 69 discriminator 1 view .LVU10
	leaq	8(%rbx), %rdi
.LBB354:
.LBB353:
.LBB352:
	.loc 2 476 9 view .LVU11
	movq	%rax, (%rbx)
.LVL5:
	.loc 2 476 9 view .LVU12
.LBE352:
.LBE353:
.LBE354:
	.loc 1 71 69 discriminator 1 view .LVU13
	movq	%rdi, %rcx
	call	_ZNSt13runtime_errorC2ERKS_
.LVL6:
.LBB355:
.LBI355:
	.loc 2 250 5 is_stmt 1 view .LVU14
.LBB356:
.LBB357:
.LBB358:
.LBB359:
.LBB360:
	.loc 2 57 23 is_stmt 0 view .LVU15
	movq	32(%rsi), %rcx
.LBE360:
.LBE359:
.LBE358:
	.loc 2 250 5 view .LVU16
	leaq	16+_ZTVN5boost9exceptionE(%rip), %rax
	movq	%rax, 24(%rbx)
.LVL7:
.LBB369:
.LBI358:
	.loc 2 56 13 is_stmt 1 view .LVU17
.LBB367:
.LBB365:
	.loc 2 57 17 is_stmt 0 view .LVU18
	movq	%rcx, 32(%rbx)
.LBB361:
.LBI361:
	.loc 2 88 13 is_stmt 1 view .LVU19
.LVL8:
.LBB362:
	.loc 2 90 17 is_stmt 0 view .LVU20
	testq	%rcx, %rcx
	jne	.L2
.L3:
.LVL9:
	.loc 2 90 17 view .LVU21
.LBE362:
.LBE361:
.LBE365:
.LBE367:
.LBE369:
	.loc 2 250 5 discriminator 1 view .LVU22
	movups	40(%rsi), %xmm0
	movq	56(%rsi), %rax
.LBE357:
.LBE356:
.LBE355:
.LBE380:
.LBE383:
.LBE386:
	.loc 1 131 9 discriminator 2 view .LVU23
	movq	%rbx, %rcx
	leaq	_ZN5boost10wrapexceptISt13runtime_errorED1Ev(%rip), %r8
	leaq	_ZTIN5boost10wrapexceptISt13runtime_errorEE(%rip), %rdx
.LBB387:
.LBB384:
.LBB381:
.LBB377:
.LBB374:
.LBB371:
	.loc 2 250 5 discriminator 1 view .LVU24
	movq	%rax, 56(%rbx)
.LVL10:
	.loc 2 250 5 discriminator 1 view .LVU25
.LBE371:
.LBE374:
.LBE377:
	.loc 1 71 69 discriminator 2 view .LVU26
	leaq	64+_ZTVN5boost10wrapexceptISt13runtime_errorEE(%rip), %rax
.LBB378:
.LBB375:
.LBB372:
	.loc 2 250 5 discriminator 1 view .LVU27
	movups	%xmm0, 40(%rbx)
.LBE372:
.LBE375:
.LBE378:
	.loc 1 71 69 discriminator 2 view .LVU28
	movq	%rax, %xmm1
	addq	$40, %rax
	movq	.LC0(%rip), %xmm0
	movq	%rax, 24(%rbx)
.LVL11:
	.loc 1 71 69 discriminator 2 view .LVU29
	punpcklqdq	%xmm1, %xmm0
	movups	%xmm0, (%rbx)
.LEHB0:
.LBE381:
.LBE384:
.LBE387:
	.loc 1 131 9 discriminator 2 view .LVU30
	call	__cxa_throw
.LVL12:
.LEHE0:
.L2:
.LBB388:
.LBB385:
.LBB382:
.LBB379:
.LBB376:
.LBB373:
.LBB370:
.LBB368:
.LBB366:
.LBB364:
.LBB363:
	.loc 2 91 33 view .LVU31
	movq	(%rcx), %rax
.LEHB1:
	call	*24(%rax)
.LVL13:
.LEHE1:
	jmp	.L3
.L5:
.LBE363:
.LBE364:
.LBE366:
.LBE368:
.LBE370:
.LBE373:
.LBE376:
.LBE379:
	.loc 1 71 69 discriminator 1 view .LVU32
	movq	%rdi, %rcx
	movq	%rax, %rsi
.LVL14:
	.loc 1 71 69 discriminator 1 view .LVU33
	call	_ZNSt13runtime_errorD2Ev
.LVL15:
.LBE382:
.LBE385:
.LBE388:
	.loc 1 131 9 discriminator 1 view .LVU34
	movq	%rbx, %rcx
	call	__cxa_free_exception
.LVL16:
	movq	%rsi, %rcx
.LEHB2:
	call	_Unwind_Resume
	nop
.LVL17:
.LEHE2:
	.cfi_endproc
.LFE3801:
	.seh_handler	__gxx_personality_seh0, @unwind, @except
	.seh_handlerdata
.LLSDA3801:
	.byte	0xff
	.byte	0xff
	.byte	0x1
	.uleb128 .LLSDACSE3801-.LLSDACSB3801
.LLSDACSB3801:
	.uleb128 .LEHB0-.LFB3801
	.uleb128 .LEHE0-.LEHB0
	.uleb128 0
	.uleb128 0
	.uleb128 .LEHB1-.LFB3801
	.uleb128 .LEHE1-.LEHB1
	.uleb128 .L5-.LFB3801
	.uleb128 0
	.uleb128 .LEHB2-.LFB3801
	.uleb128 .LEHE2-.LEHB2
	.uleb128 0
	.uleb128 0
.LLSDACSE3801:
	.section	.text$_ZNK5boost10wrapexceptISt13runtime_errorE7rethrowEv,"x"
	.linkonce discard
	.seh_endproc
	.section	.text$_ZN5boost10wrapexceptISt13runtime_errorED1Ev,"x"
	.linkonce discard
	.align 2
	.p2align 4
	.globl	_ZN5boost10wrapexceptISt13runtime_errorED1Ev
	.def	_ZN5boost10wrapexceptISt13runtime_errorED1Ev;	.scl	2;	.type	32;	.endef
	.seh_proc	_ZN5boost10wrapexceptISt13runtime_errorED1Ev
_ZN5boost10wrapexceptISt13runtime_errorED1Ev:
.LVL18:
.LFB3538:
	.loc 1 71 69 is_stmt 1 view -0
	.cfi_startproc
	.loc 1 71 69 is_stmt 0 view .LVU36
	pushq	%rbx
	.seh_pushreg	%rbx
	.cfi_def_cfa_offset 16
	.cfi_offset 3, -16
	subq	$32, %rsp
	.seh_stackalloc	32
	.cfi_def_cfa_offset 48
	.seh_endprologue
.LBB403:
	.loc 1 71 69 view .LVU37
	leaq	64+_ZTVN5boost10wrapexceptISt13runtime_errorEE(%rip), %rax
	movq	.LC0(%rip), %xmm0
	movq	%rax, %xmm1
.LBB404:
.LBB405:
	.loc 2 334 18 view .LVU38
	leaq	16+_ZTVN5boost9exceptionE(%rip), %rax
.LBE405:
.LBE404:
	.loc 1 71 69 view .LVU39
	punpcklqdq	%xmm1, %xmm0
.LBB411:
.LBB409:
	.loc 2 334 18 view .LVU40
	movq	%rax, 24(%rcx)
.LBE409:
.LBE411:
.LBE403:
	.loc 1 71 69 view .LVU41
	movq	%rcx, %rbx
.LBB413:
	movups	%xmm0, (%rcx)
.LVL19:
.LBB412:
.LBI404:
	.loc 2 333 5 is_stmt 1 view .LVU42
.LBB410:
.LBB406:
.LBI406:
	.loc 2 51 13 view .LVU43
.LBB407:
.LBI407:
	.loc 2 95 13 view .LVU44
.LBB408:
	.loc 2 97 21 is_stmt 0 view .LVU45
	movq	32(%rcx), %rcx
.LVL20:
	.loc 2 97 25 view .LVU46
	testq	%rcx, %rcx
	je	.L8
	.loc 2 97 40 discriminator 1 view .LVU47
	movq	(%rcx), %rax
	call	*32(%rax)
.LVL21:
.L8:
	.loc 2 97 40 discriminator 1 view .LVU48
.LBE408:
.LBE407:
.LBE406:
.LBE410:
.LBE412:
	.loc 1 71 69 discriminator 1 view .LVU49
	leaq	8(%rbx), %rcx
.LBE413:
	.loc 1 71 69 view .LVU50
	addq	$32, %rsp
	.cfi_def_cfa_offset 16
	popq	%rbx
	.cfi_restore 3
	.cfi_def_cfa_offset 8
.LVL22:
.LBB414:
	.loc 1 71 69 discriminator 1 view .LVU51
	jmp	_ZNSt13runtime_errorD2Ev
.LVL23:
	.loc 1 71 69 discriminator 1 view .LVU52
.LBE414:
	.cfi_endproc
.LFE3538:
	.seh_handler	__gxx_personality_seh0, @unwind, @except
	.seh_handlerdata
.LLSDA3538:
	.byte	0xff
	.byte	0xff
	.byte	0x1
	.uleb128 .LLSDACSE3538-.LLSDACSB3538
.LLSDACSB3538:
.LLSDACSE3538:
	.section	.text$_ZN5boost10wrapexceptISt13runtime_errorED1Ev,"x"
	.linkonce discard
	.seh_endproc
	.section	.text$_ZThn8_N5boost10wrapexceptISt13runtime_errorED1Ev,"x"
	.linkonce discard
	.p2align 4
	.globl	_ZThn8_N5boost10wrapexceptISt13runtime_errorED1Ev
	.def	_ZThn8_N5boost10wrapexceptISt13runtime_errorED1Ev;	.scl	2;	.type	32;	.endef
	.seh_proc	_ZThn8_N5boost10wrapexceptISt13runtime_errorED1Ev
_ZThn8_N5boost10wrapexceptISt13runtime_errorED1Ev:
.LFB3812:
	.cfi_startproc
	.loc 1 71 69 is_stmt 1 view -0
	pushq	%rbx
	.seh_pushreg	%rbx
	.cfi_def_cfa_offset 16
	.cfi_offset 3, -16
	subq	$32, %rsp
	.seh_stackalloc	32
	.cfi_def_cfa_offset 48
	.seh_endprologue
	leaq	64+_ZTVN5boost10wrapexceptISt13runtime_errorEE(%rip), %rax
	movq	.LC0(%rip), %xmm0
	movq	%rax, %xmm1
	leaq	16+_ZTVN5boost9exceptionE(%rip), %rax
	punpcklqdq	%xmm1, %xmm0
	movq	%rax, 16(%rcx)
	movq	%rcx, %rbx
	movups	%xmm0, -8(%rcx)
	movq	24(%rcx), %rcx
	testq	%rcx, %rcx
	je	.L13
	movq	(%rcx), %rax
	call	*32(%rax)
.L13:
	movq	%rbx, %rcx
	addq	$32, %rsp
	.cfi_def_cfa_offset 16
	popq	%rbx
	.cfi_restore 3
	.cfi_def_cfa_offset 8
	jmp	_ZNSt13runtime_errorD2Ev
	.cfi_endproc
.LFE3812:
	.seh_handler	__gxx_personality_seh0, @unwind, @except
	.seh_handlerdata
.LLSDA3812:
	.byte	0xff
	.byte	0xff
	.byte	0x1
	.uleb128 .LLSDACSE3812-.LLSDACSB3812
.LLSDACSB3812:
.LLSDACSE3812:
	.section	.text$_ZThn8_N5boost10wrapexceptISt13runtime_errorED1Ev,"x"
	.linkonce discard
	.seh_endproc
	.section	.text$_ZThn24_N5boost10wrapexceptISt13runtime_errorED1Ev,"x"
	.linkonce discard
	.p2align 4
	.globl	_ZThn24_N5boost10wrapexceptISt13runtime_errorED1Ev
	.def	_ZThn24_N5boost10wrapexceptISt13runtime_errorED1Ev;	.scl	2;	.type	32;	.endef
	.seh_proc	_ZThn24_N5boost10wrapexceptISt13runtime_errorED1Ev
_ZThn24_N5boost10wrapexceptISt13runtime_errorED1Ev:
.LFB3813:
	.cfi_startproc
	.loc 1 71 69 view -0
	pushq	%rbx
	.seh_pushreg	%rbx
	.cfi_def_cfa_offset 16
	.cfi_offset 3, -16
	subq	$32, %rsp
	.seh_stackalloc	32
	.cfi_def_cfa_offset 48
	.seh_endprologue
	leaq	64+_ZTVN5boost10wrapexceptISt13runtime_errorEE(%rip), %rax
	movq	.LC0(%rip), %xmm0
	movq	%rax, %xmm1
	leaq	16+_ZTVN5boost9exceptionE(%rip), %rax
	punpcklqdq	%xmm1, %xmm0
	movq	%rax, (%rcx)
	movq	%rcx, %rbx
	movups	%xmm0, -24(%rcx)
	movq	8(%rcx), %rcx
	testq	%rcx, %rcx
	je	.L18
	movq	(%rcx), %rax
	call	*32(%rax)
.L18:
	leaq	-16(%rbx), %rcx
	addq	$32, %rsp
	.cfi_def_cfa_offset 16
	popq	%rbx
	.cfi_restore 3
	.cfi_def_cfa_offset 8
	jmp	_ZNSt13runtime_errorD2Ev
	.cfi_endproc
.LFE3813:
	.seh_handler	__gxx_personality_seh0, @unwind, @except
	.seh_handlerdata
.LLSDA3813:
	.byte	0xff
	.byte	0xff
	.byte	0x1
	.uleb128 .LLSDACSE3813-.LLSDACSB3813
.LLSDACSB3813:
.LLSDACSE3813:
	.section	.text$_ZThn24_N5boost10wrapexceptISt13runtime_errorED1Ev,"x"
	.linkonce discard
	.seh_endproc
	.section	.text$_ZN5boost10wrapexceptISt13runtime_errorED0Ev,"x"
	.linkonce discard
	.align 2
	.p2align 4
	.globl	_ZN5boost10wrapexceptISt13runtime_errorED0Ev
	.def	_ZN5boost10wrapexceptISt13runtime_errorED0Ev;	.scl	2;	.type	32;	.endef
	.seh_proc	_ZN5boost10wrapexceptISt13runtime_errorED0Ev
_ZN5boost10wrapexceptISt13runtime_errorED0Ev:
.LVL24:
.LFB3539:
	.loc 1 71 69 view -0
	.cfi_startproc
	.loc 1 71 69 is_stmt 0 view .LVU56
	pushq	%rbx
	.seh_pushreg	%rbx
	.cfi_def_cfa_offset 16
	.cfi_offset 3, -16
	subq	$32, %rsp
	.seh_stackalloc	32
	.cfi_def_cfa_offset 48
	.seh_endprologue
.LVL25:
.LBB425:
.LBI425:
	.loc 1 71 69 is_stmt 1 view .LVU57
.LBB426:
	leaq	64+_ZTVN5boost10wrapexceptISt13runtime_errorEE(%rip), %rax
	movq	.LC0(%rip), %xmm0
	movq	%rax, %xmm1
.LBB427:
.LBB428:
	.loc 2 334 18 is_stmt 0 view .LVU58
	leaq	16+_ZTVN5boost9exceptionE(%rip), %rax
.LBE428:
.LBE427:
	.loc 1 71 69 view .LVU59
	punpcklqdq	%xmm1, %xmm0
.LBB434:
.LBB432:
	.loc 2 334 18 view .LVU60
	movq	%rax, 24(%rcx)
.LBE432:
.LBE434:
.LBE426:
.LBE425:
	.loc 1 71 69 view .LVU61
	movq	%rcx, %rbx
.LBB438:
.LBB437:
	movups	%xmm0, (%rcx)
.LVL26:
.LBB435:
.LBI427:
	.loc 2 333 5 is_stmt 1 view .LVU62
.LBB433:
.LBB429:
.LBI429:
	.loc 2 51 13 view .LVU63
.LBB430:
.LBI430:
	.loc 2 95 13 view .LVU64
.LBB431:
	.loc 2 97 21 is_stmt 0 view .LVU65
	movq	32(%rcx), %rcx
.LVL27:
	.loc 2 97 25 view .LVU66
	testq	%rcx, %rcx
	je	.L23
	.loc 2 97 40 discriminator 1 view .LVU67
	movq	(%rcx), %rax
	call	*32(%rax)
.LVL28:
.L23:
	.loc 2 97 40 discriminator 1 view .LVU68
.LBE431:
.LBE430:
.LBE429:
.LBE433:
.LBE435:
	.loc 1 71 69 discriminator 1 view .LVU69
	leaq	8(%rbx), %rcx
	call	_ZNSt13runtime_errorD2Ev
.LVL29:
.LBB436:
.LBI436:
	.loc 2 484 13 is_stmt 1 view .LVU70
	.loc 2 484 13 is_stmt 0 view .LVU71
.LBE436:
.LBE437:
.LBE438:
	.loc 1 71 69 discriminator 1 view .LVU72
	movl	$64, %edx
	movq	%rbx, %rcx
	.loc 1 71 69 view .LVU73
	addq	$32, %rsp
	.cfi_def_cfa_offset 16
	popq	%rbx
	.cfi_restore 3
	.cfi_def_cfa_offset 8
.LVL30:
	.loc 1 71 69 discriminator 1 view .LVU74
	jmp	_ZdlPvy
.LVL31:
	.loc 1 71 69 discriminator 1 view .LVU75
	.cfi_endproc
.LFE3539:
	.seh_handler	__gxx_personality_seh0, @unwind, @except
	.seh_handlerdata
.LLSDA3539:
	.byte	0xff
	.byte	0xff
	.byte	0x1
	.uleb128 .LLSDACSE3539-.LLSDACSB3539
.LLSDACSB3539:
.LLSDACSE3539:
	.section	.text$_ZN5boost10wrapexceptISt13runtime_errorED0Ev,"x"
	.linkonce discard
	.seh_endproc
	.section	.text$_ZThn24_N5boost10wrapexceptISt13runtime_errorED0Ev,"x"
	.linkonce discard
	.p2align 4
	.globl	_ZThn24_N5boost10wrapexceptISt13runtime_errorED0Ev
	.def	_ZThn24_N5boost10wrapexceptISt13runtime_errorED0Ev;	.scl	2;	.type	32;	.endef
	.seh_proc	_ZThn24_N5boost10wrapexceptISt13runtime_errorED0Ev
_ZThn24_N5boost10wrapexceptISt13runtime_errorED0Ev:
.LFB3810:
	.cfi_startproc
	.loc 1 71 69 is_stmt 1 view -0
	pushq	%rsi
	.seh_pushreg	%rsi
	.cfi_def_cfa_offset 16
	.cfi_offset 4, -16
	pushq	%rbx
	.seh_pushreg	%rbx
	.cfi_def_cfa_offset 24
	.cfi_offset 3, -24
	subq	$40, %rsp
	.seh_stackalloc	40
	.cfi_def_cfa_offset 64
	.seh_endprologue
	leaq	64+_ZTVN5boost10wrapexceptISt13runtime_errorEE(%rip), %rax
	movq	.LC0(%rip), %xmm0
	movq	%rax, %xmm1
	leaq	16+_ZTVN5boost9exceptionE(%rip), %rax
	punpcklqdq	%xmm1, %xmm0
	movq	%rax, (%rcx)
	movq	%rcx, %rbx
	leaq	-24(%rcx), %rsi
	movups	%xmm0, -24(%rcx)
	movq	8(%rcx), %rcx
	testq	%rcx, %rcx
	je	.L28
	movq	(%rcx), %rax
	call	*32(%rax)
.L28:
	leaq	-16(%rbx), %rcx
	call	_ZNSt13runtime_errorD2Ev
	movl	$64, %edx
	movq	%rsi, %rcx
	addq	$40, %rsp
	.cfi_def_cfa_offset 24
	popq	%rbx
	.cfi_restore 3
	.cfi_def_cfa_offset 16
	popq	%rsi
	.cfi_restore 4
	.cfi_def_cfa_offset 8
	jmp	_ZdlPvy
	.cfi_endproc
.LFE3810:
	.seh_handler	__gxx_personality_seh0, @unwind, @except
	.seh_handlerdata
.LLSDA3810:
	.byte	0xff
	.byte	0xff
	.byte	0x1
	.uleb128 .LLSDACSE3810-.LLSDACSB3810
.LLSDACSB3810:
.LLSDACSE3810:
	.section	.text$_ZThn24_N5boost10wrapexceptISt13runtime_errorED0Ev,"x"
	.linkonce discard
	.seh_endproc
	.section	.text$_ZThn8_N5boost10wrapexceptISt13runtime_errorED0Ev,"x"
	.linkonce discard
	.p2align 4
	.globl	_ZThn8_N5boost10wrapexceptISt13runtime_errorED0Ev
	.def	_ZThn8_N5boost10wrapexceptISt13runtime_errorED0Ev;	.scl	2;	.type	32;	.endef
	.seh_proc	_ZThn8_N5boost10wrapexceptISt13runtime_errorED0Ev
_ZThn8_N5boost10wrapexceptISt13runtime_errorED0Ev:
.LFB3811:
	.cfi_startproc
	.loc 1 71 69 view -0
	pushq	%rsi
	.seh_pushreg	%rsi
	.cfi_def_cfa_offset 16
	.cfi_offset 4, -16
	pushq	%rbx
	.seh_pushreg	%rbx
	.cfi_def_cfa_offset 24
	.cfi_offset 3, -24
	subq	$40, %rsp
	.seh_stackalloc	40
	.cfi_def_cfa_offset 64
	.seh_endprologue
	leaq	64+_ZTVN5boost10wrapexceptISt13runtime_errorEE(%rip), %rax
	movq	.LC0(%rip), %xmm0
	movq	%rax, %xmm1
	leaq	16+_ZTVN5boost9exceptionE(%rip), %rax
	punpcklqdq	%xmm1, %xmm0
	movq	%rax, 16(%rcx)
	movq	%rcx, %rbx
	leaq	-8(%rcx), %rsi
	movups	%xmm0, -8(%rcx)
	movq	24(%rcx), %rcx
	testq	%rcx, %rcx
	je	.L33
	movq	(%rcx), %rax
	call	*32(%rax)
.L33:
	movq	%rbx, %rcx
	call	_ZNSt13runtime_errorD2Ev
	movl	$64, %edx
	movq	%rsi, %rcx
	addq	$40, %rsp
	.cfi_def_cfa_offset 24
	popq	%rbx
	.cfi_restore 3
	.cfi_def_cfa_offset 16
	popq	%rsi
	.cfi_restore 4
	.cfi_def_cfa_offset 8
	jmp	_ZdlPvy
	.cfi_endproc
.LFE3811:
	.seh_handler	__gxx_personality_seh0, @unwind, @except
	.seh_handlerdata
.LLSDA3811:
	.byte	0xff
	.byte	0xff
	.byte	0x1
	.uleb128 .LLSDACSE3811-.LLSDACSB3811
.LLSDACSB3811:
.LLSDACSE3811:
	.section	.text$_ZThn8_N5boost10wrapexceptISt13runtime_errorED0Ev,"x"
	.linkonce discard
	.seh_endproc
	.section	.text$_ZNSt7__cxx1112basic_stringIcSt11char_traitsIcESaIcEE10_M_disposeEv,"x"
	.linkonce discard
	.align 2
	.p2align 4
	.globl	_ZNSt7__cxx1112basic_stringIcSt11char_traitsIcESaIcEE10_M_disposeEv
	.def	_ZNSt7__cxx1112basic_stringIcSt11char_traitsIcESaIcEE10_M_disposeEv;	.scl	2;	.type	32;	.endef
	.seh_proc	_ZNSt7__cxx1112basic_stringIcSt11char_traitsIcESaIcEE10_M_disposeEv
_ZNSt7__cxx1112basic_stringIcSt11char_traitsIcESaIcEE10_M_disposeEv:
.LVL32:
.LFB3561:
	.file 3 "E:/MSYS2/mingw64/include/c++/14.1.0/bits/basic_string.h"
	.loc 3 285 7 view -0
	.cfi_startproc
	.loc 3 285 7 is_stmt 0 view .LVU79
	.seh_endprologue
.LVL33:
.LBB439:
.LBI439:
	.loc 3 267 7 is_stmt 1 view .LVU80
.LBB440:
.LBB441:
.LBI441:
	.loc 3 227 7 view .LVU81
.LBB442:
	.loc 3 228 28 is_stmt 0 view .LVU82
	movq	(%rcx), %rax
.LVL34:
	.loc 3 228 28 view .LVU83
.LBE442:
.LBE441:
.LBB443:
.LBI443:
	.loc 3 243 7 is_stmt 1 view .LVU84
.LBB444:
	.loc 3 246 57 is_stmt 0 view .LVU85
	leaq	16(%rcx), %rdx
.LBE444:
.LBE443:
	.loc 3 269 2 discriminator 2 view .LVU86
	cmpq	%rdx, %rax
	je	.L37
.LVL35:
	.loc 3 269 2 discriminator 2 view .LVU87
.LBE440:
.LBE439:
.LBB445:
.LBI445:
	.loc 3 293 7 is_stmt 1 view .LVU88
.LBB446:
.LBB447:
.LBI447:
	.file 4 "E:/MSYS2/mingw64/include/c++/14.1.0/bits/alloc_traits.h"
	.loc 4 512 7 view .LVU89
.LBB448:
.LBI448:
	.file 5 "E:/MSYS2/mingw64/include/c++/14.1.0/bits/allocator.h"
	.loc 5 201 7 view .LVU90
.LBB449:
.LBI449:
	.file 6 "E:/MSYS2/mingw64/include/c++/14.1.0/bits/new_allocator.h"
	.loc 6 156 7 view .LVU91
.LBE449:
.LBE448:
.LBE447:
	.loc 3 294 34 is_stmt 0 view .LVU92
	movq	16(%rcx), %rdx
.LVL36:
.LBB456:
.LBB454:
.LBB452:
.LBB450:
	.loc 6 172 19 view .LVU93
	movq	%rax, %rcx
.LVL37:
	.loc 6 172 19 view .LVU94
.LBE450:
.LBE452:
.LBE454:
.LBE456:
	.loc 3 294 34 view .LVU95
	addq	$1, %rdx
.LVL38:
	.loc 3 294 34 view .LVU96
.LBE446:
.LBE445:
	.loc 3 289 7 view .LVU97
.LBB459:
.LBB458:
.LBB457:
.LBB455:
.LBB453:
.LBB451:
	.loc 6 172 19 view .LVU98
	jmp	_ZdlPvy
.LVL39:
	.p2align 4,,10
	.p2align 3
.L37:
	.loc 6 172 19 view .LVU99
.LBE451:
.LBE453:
.LBE455:
.LBE457:
.LBE458:
.LBE459:
	.loc 3 289 7 view .LVU100
	ret
	.cfi_endproc
.LFE3561:
	.seh_endproc
	.section	.text$_ZN5boost16exception_detail12refcount_ptrINS0_20error_info_containerEE7releaseEv,"x"
	.linkonce discard
	.align 2
	.p2align 4
	.globl	_ZN5boost16exception_detail12refcount_ptrINS0_20error_info_containerEE7releaseEv
	.def	_ZN5boost16exception_detail12refcount_ptrINS0_20error_info_containerEE7releaseEv;	.scl	2;	.type	32;	.endef
	.seh_proc	_ZN5boost16exception_detail12refcount_ptrINS0_20error_info_containerEE7releaseEv
_ZN5boost16exception_detail12refcount_ptrINS0_20error_info_containerEE7releaseEv:
.LVL40:
.LFB3670:
	.loc 2 95 13 is_stmt 1 view -0
	.cfi_startproc
	.loc 2 95 13 is_stmt 0 view .LVU102
	pushq	%rbx
	.seh_pushreg	%rbx
	.cfi_def_cfa_offset 16
	.cfi_offset 3, -16
	subq	$32, %rsp
	.seh_stackalloc	32
	.cfi_def_cfa_offset 48
	.seh_endprologue
	.loc 2 95 13 view .LVU103
	movq	%rcx, %rbx
	.loc 2 97 21 view .LVU104
	movq	(%rcx), %rcx
.LVL41:
	.loc 2 97 25 view .LVU105
	testq	%rcx, %rcx
	je	.L39
	.loc 2 97 40 discriminator 1 view .LVU106
	movq	(%rcx), %rax
	call	*32(%rax)
.LVL42:
	.loc 2 97 25 discriminator 1 view .LVU107
	testb	%al, %al
	je	.L39
	.loc 2 98 24 view .LVU108
	movq	$0, (%rbx)
.L39:
	.loc 2 99 17 view .LVU109
	addq	$32, %rsp
	.cfi_def_cfa_offset 16
	popq	%rbx
	.cfi_restore 3
	.cfi_def_cfa_offset 8
.LVL43:
	.loc 2 99 17 view .LVU110
	ret
	.cfi_endproc
.LFE3670:
	.seh_endproc
	.section	.text$_ZNK5boost10wrapexceptISt13runtime_errorE5cloneEv,"x"
	.linkonce discard
	.align 2
	.p2align 4
	.globl	_ZNK5boost10wrapexceptISt13runtime_errorE5cloneEv
	.def	_ZNK5boost10wrapexceptISt13runtime_errorE5cloneEv;	.scl	2;	.type	32;	.endef
	.seh_proc	_ZNK5boost10wrapexceptISt13runtime_errorE5cloneEv
_ZNK5boost10wrapexceptISt13runtime_errorE5cloneEv:
.LVL44:
.LFB3791:
	.loc 1 112 57 is_stmt 1 view -0
	.cfi_startproc
	.loc 1 112 57 is_stmt 0 view .LVU112
	pushq	%rbp
	.seh_pushreg	%rbp
	.cfi_def_cfa_offset 16
	.cfi_offset 6, -16
	pushq	%rdi
	.seh_pushreg	%rdi
	.cfi_def_cfa_offset 24
	.cfi_offset 5, -24
	pushq	%rsi
	.seh_pushreg	%rsi
	.cfi_def_cfa_offset 32
	.cfi_offset 4, -32
	pushq	%rbx
	.seh_pushreg	%rbx
	.cfi_def_cfa_offset 40
	.cfi_offset 3, -40
	subq	$56, %rsp
	.seh_stackalloc	56
	.cfi_def_cfa_offset 96
	.seh_endprologue
	.loc 1 112 57 view .LVU113
	movq	%rcx, %rdi
	.loc 1 114 26 view .LVU114
	movl	$64, %ecx
.LVL45:
.LEHB3:
	.loc 1 114 26 view .LVU115
	call	_Znwy
.LVL46:
.LEHE3:
.LBB518:
.LBB519:
.LBB520:
	.loc 1 71 69 discriminator 1 view .LVU116
	leaq	8(%rdi), %rdx
.LBE520:
.LBE519:
.LBE518:
	.loc 1 114 26 view .LVU117
	movq	%rax, %rbx
.LVL47:
.LBB552:
.LBI518:
	.loc 1 71 69 is_stmt 1 view .LVU118
.LBB548:
.LBB544:
.LBB521:
.LBI521:
	.loc 2 476 9 view .LVU119
.LBB522:
.LBB523:
	leaq	16+_ZTVN5boost16exception_detail10clone_baseE(%rip), %rax
.LVL48:
	.loc 2 476 9 is_stmt 0 view .LVU120
	movq	%rax, (%rbx)
.LVL49:
	.loc 2 476 9 view .LVU121
.LBE523:
.LBE522:
.LBE521:
	.loc 1 71 69 discriminator 1 view .LVU122
	leaq	8(%rbx), %rbp
	movq	%rbp, %rcx
	call	_ZNSt13runtime_errorC2ERKS_
.LVL50:
.LBB524:
.LBI524:
	.loc 2 250 5 is_stmt 1 view .LVU123
.LBB525:
.LBB526:
.LBB527:
.LBB528:
.LBB529:
	.loc 2 57 23 is_stmt 0 view .LVU124
	movq	32(%rdi), %rsi
.LBE529:
.LBE528:
.LBE527:
	.loc 2 250 5 view .LVU125
	leaq	16+_ZTVN5boost9exceptionE(%rip), %rax
	movq	%rax, 24(%rbx)
.LVL51:
.LBB534:
.LBI527:
	.loc 2 56 13 is_stmt 1 view .LVU126
.LBB533:
.LBB532:
	.loc 2 57 17 is_stmt 0 view .LVU127
	movq	%rsi, 32(%rbx)
.LBB530:
.LBI530:
	.loc 2 88 13 is_stmt 1 view .LVU128
.LVL52:
.LBB531:
	.loc 2 90 17 is_stmt 0 view .LVU129
	testq	%rsi, %rsi
	je	.L47
	.loc 2 91 33 view .LVU130
	movq	(%rsi), %rax
	movq	%rsi, %rcx
.LEHB4:
	call	*24(%rax)
.LVL53:
.LEHE4:
.LBE531:
.LBE530:
.LBE532:
.LBE533:
.LBE534:
.LBE526:
.LBE525:
.LBE524:
.LBE544:
.LBE548:
.LBE552:
.LBB553:
.LBB554:
.LBB555:
.LBB556:
.LBB557:
	.loc 2 80 24 view .LVU131
	movq	32(%rdi), %rsi
.L47:
.LVL54:
	.loc 2 80 24 view .LVU132
.LBE557:
.LBE556:
.LBE555:
.LBE554:
.LBE553:
.LBB615:
.LBB549:
.LBB545:
	.loc 1 71 69 discriminator 2 view .LVU133
	leaq	64+_ZTVN5boost10wrapexceptISt13runtime_errorEE(%rip), %rax
.LBB541:
.LBB538:
.LBB535:
	.loc 2 250 5 discriminator 1 view .LVU134
	movdqu	40(%rdi), %xmm2
.LBE535:
.LBE538:
.LBE541:
	.loc 1 71 69 discriminator 2 view .LVU135
	movq	.LC0(%rip), %xmm0
	movq	%rax, %xmm3
.LBB542:
.LBB539:
.LBB536:
	.loc 2 250 5 discriminator 1 view .LVU136
	movq	56(%rdi), %xmm1
.LBE536:
.LBE539:
.LBE542:
	.loc 1 71 69 discriminator 2 view .LVU137
	addq	$40, %rax
	punpcklqdq	%xmm3, %xmm0
	movq	%rax, 24(%rbx)
.LBB543:
.LBB540:
.LBB537:
	.loc 2 250 5 discriminator 1 view .LVU138
	movups	%xmm2, 40(%rbx)
	movq	%xmm1, 56(%rbx)
.LVL55:
	.loc 2 250 5 discriminator 1 view .LVU139
.LBE537:
.LBE540:
.LBE543:
.LBE545:
.LBE549:
.LBE615:
.LBB616:
.LBI553:
	.loc 2 491 9 is_stmt 1 view .LVU140
.LBB609:
	.loc 2 493 13 view .LVU141
.LBB571:
.LBI571:
	.loc 2 46 13 view .LVU142
	.loc 2 46 13 is_stmt 0 view .LVU143
.LBE571:
	.loc 2 494 13 is_stmt 1 view .LVU144
.LBB572:
.LBB558:
.LBI556:
	.loc 2 78 13 view .LVU145
	.loc 2 78 13 is_stmt 0 view .LVU146
.LBE558:
.LBE572:
.LBE609:
.LBE616:
.LBB617:
.LBB550:
.LBB546:
	.loc 1 71 69 discriminator 2 view .LVU147
	movups	%xmm0, (%rbx)
.LBE546:
.LBE550:
.LBE617:
.LBB618:
.LBB610:
.LBB573:
	.loc 2 494 13 discriminator 1 view .LVU148
	testq	%rsi, %rsi
	je	.L82
	.loc 2 495 17 is_stmt 1 view .LVU149
	.loc 2 495 32 is_stmt 0 view .LVU150
	movq	(%rsi), %rax
	leaq	40(%rsp), %rbp
	movq	%rsi, %rdx
	movq	%rbp, %rcx
.LEHB5:
	call	*40(%rax)
.LVL56:
.LEHE5:
.LBB559:
.LBI559:
	.loc 2 63 13 is_stmt 1 view .LVU151
.LBB560:
	.loc 2 65 25 is_stmt 0 view .LVU152
	movq	40(%rsp), %rsi
.LVL57:
.LBB561:
.LBI561:
	.loc 2 70 13 is_stmt 1 view .LVU153
.LBB562:
.LBI562:
	.loc 2 88 13 view .LVU154
.LBB563:
	.loc 2 90 17 is_stmt 0 view .LVU155
	testq	%rsi, %rsi
	je	.L55
	.loc 2 91 33 view .LVU156
	movq	(%rsi), %rax
	movq	%rsi, %rcx
.LEHB6:
	call	*24(%rax)
.LVL58:
.LEHE6:
	.loc 2 91 33 view .LVU157
.LBE563:
.LBE562:
.LBE561:
.LBE560:
.LBE559:
.LBB564:
.LBI564:
	.loc 2 51 13 is_stmt 1 view .LVU158
.LBB565:
.LBB566:
.LBI566:
	.loc 2 95 13 view .LVU159
.LBB567:
	.loc 2 97 21 is_stmt 0 view .LVU160
	movq	40(%rsp), %rcx
	.loc 2 97 25 view .LVU161
	testq	%rcx, %rcx
	je	.L55
	.loc 2 97 40 discriminator 1 view .LVU162
	movq	(%rcx), %rax
	call	*32(%rax)
.LVL59:
.L55:
	.loc 2 97 40 discriminator 1 view .LVU163
.LBE567:
.LBE566:
.LBE565:
.LBE564:
.LBE573:
	.loc 2 498 32 view .LVU164
	movq	40(%rdi), %rcx
	.loc 2 496 33 view .LVU165
	movq	48(%rdi), %rdx
	.loc 2 497 33 view .LVU166
	movq	56(%rdi), %rax
	.loc 2 496 13 is_stmt 1 view .LVU167
	.loc 2 497 13 view .LVU168
	.loc 2 498 13 view .LVU169
	.loc 2 499 13 view .LVU170
	.loc 2 498 32 is_stmt 0 view .LVU171
	movq	%rcx, 40(%rbx)
.LBB574:
.LBB575:
.LBB576:
.LBB577:
.LBB578:
	.loc 2 97 21 view .LVU172
	movq	32(%rbx), %rcx
.LBE578:
.LBE577:
.LBE576:
.LBE575:
.LBE574:
	.loc 2 496 28 view .LVU173
	movq	%rdx, 48(%rbx)
	.loc 2 497 28 view .LVU174
	movq	%rax, 56(%rbx)
	.loc 2 500 13 is_stmt 1 view .LVU175
.LVL60:
.LBB596:
.LBI574:
	.loc 2 63 13 view .LVU176
.LBB592:
.LBI575:
	.loc 2 70 13 view .LVU177
.LBB588:
.LBB582:
.LBI577:
	.loc 2 95 13 view .LVU178
.LBB579:
	.loc 2 97 25 is_stmt 0 view .LVU179
	testq	%rcx, %rcx
	je	.L57
	.loc 2 97 40 discriminator 1 view .LVU180
	movq	(%rcx), %rax
.LEHB7:
	call	*32(%rax)
.LVL61:
.L57:
	.loc 2 97 40 discriminator 1 view .LVU181
.LBE579:
.LBE582:
	.loc 2 73 20 view .LVU182
	movq	%rsi, 32(%rbx)
.LBB583:
.LBI583:
	.loc 2 88 13 is_stmt 1 view .LVU183
.LVL62:
.LBB584:
	.loc 2 90 17 is_stmt 0 view .LVU184
	testq	%rsi, %rsi
	je	.L46
	.loc 2 91 33 view .LVU185
	movq	(%rsi), %rax
	movq	%rsi, %rcx
	call	*24(%rax)
.LVL63:
.LEHE7:
	.loc 2 91 33 view .LVU186
.LBE584:
.LBE583:
.LBE588:
.LBE592:
.LBE596:
.LBB597:
.LBI597:
	.loc 2 51 13 is_stmt 1 view .LVU187
.LBB598:
.LBI598:
	.loc 2 95 13 view .LVU188
.LBB599:
	.loc 2 97 40 is_stmt 0 discriminator 1 view .LVU189
	movq	(%rsi), %rax
	movq	%rsi, %rcx
	call	*32(%rax)
.LVL64:
	.loc 2 97 40 discriminator 1 view .LVU190
.LBE599:
.LBE598:
.LBE597:
.LBE610:
.LBE618:
.LBB619:
.LBI619:
	.loc 1 81 9 is_stmt 1 view .LVU191
.L46:
	.loc 1 81 9 is_stmt 0 view .LVU192
.LBE619:
	.loc 1 121 5 view .LVU193
	movq	%rbx, %rax
	addq	$56, %rsp
	.cfi_remember_state
	.cfi_def_cfa_offset 40
	popq	%rbx
	.cfi_restore 3
	.cfi_def_cfa_offset 32
.LVL65:
	.loc 1 121 5 view .LVU194
	popq	%rsi
	.cfi_restore 4
	.cfi_def_cfa_offset 24
	popq	%rdi
	.cfi_restore 5
	.cfi_def_cfa_offset 16
.LVL66:
	.loc 1 121 5 view .LVU195
	popq	%rbp
	.cfi_restore 6
	.cfi_def_cfa_offset 8
	ret
.LVL67:
	.p2align 4,,10
	.p2align 3
.L82:
	.cfi_restore_state
.LBB620:
.LBB611:
	.loc 2 496 13 is_stmt 1 view .LVU196
.LBB600:
.LBB593:
.LBB589:
.LBB585:
.LBB580:
	.loc 2 97 21 is_stmt 0 view .LVU197
	movq	32(%rbx), %rcx
.LBE580:
.LBE585:
.LBE589:
.LBE593:
.LBE600:
	.loc 2 499 30 view .LVU198
	pshufd	$0xe5, %xmm1, %xmm4
	.loc 2 496 28 view .LVU199
	movhps	%xmm2, 48(%rbx)
	.loc 2 497 13 is_stmt 1 view .LVU200
	.loc 2 497 28 is_stmt 0 view .LVU201
	movd	%xmm1, 56(%rbx)
	.loc 2 498 13 is_stmt 1 view .LVU202
	.loc 2 498 32 is_stmt 0 view .LVU203
	movq	%xmm2, 40(%rbx)
	.loc 2 499 13 is_stmt 1 view .LVU204
	.loc 2 499 30 is_stmt 0 view .LVU205
	movd	%xmm4, 60(%rbx)
	.loc 2 500 13 is_stmt 1 view .LVU206
.LVL68:
.LBB601:
	.loc 2 63 13 view .LVU207
.LBB594:
	.loc 2 70 13 view .LVU208
.LBB590:
.LBB586:
	.loc 2 95 13 view .LVU209
.LBB581:
	.loc 2 97 25 is_stmt 0 view .LVU210
	testq	%rcx, %rcx
	je	.L46
	.loc 2 97 40 discriminator 1 view .LVU211
	movq	(%rcx), %rax
	leaq	40(%rsp), %rbp
.LVL69:
.LEHB8:
	.loc 2 97 40 discriminator 1 view .LVU212
	call	*32(%rax)
.LVL70:
.LEHE8:
	.loc 2 97 40 discriminator 1 view .LVU213
.LBE581:
.LBE586:
.LBE590:
.LBE594:
.LBE601:
.LBE611:
.LBE620:
	.loc 1 121 5 view .LVU214
	movq	%rbx, %rax
.LBB621:
.LBB612:
.LBB602:
.LBB595:
.LBB591:
	.loc 2 73 20 view .LVU215
	movq	$0, 32(%rbx)
.LBB587:
	.loc 2 88 13 is_stmt 1 view .LVU216
.LVL71:
	.loc 2 88 13 is_stmt 0 view .LVU217
.LBE587:
.LBE591:
.LBE595:
.LBE602:
.LBE612:
.LBE621:
	.loc 1 121 5 view .LVU218
	addq	$56, %rsp
	.cfi_remember_state
	.cfi_def_cfa_offset 40
	popq	%rbx
	.cfi_restore 3
	.cfi_def_cfa_offset 32
.LVL72:
	.loc 1 121 5 view .LVU219
	popq	%rsi
	.cfi_restore 4
	.cfi_def_cfa_offset 24
	popq	%rdi
	.cfi_restore 5
	.cfi_def_cfa_offset 16
.LVL73:
	.loc 1 121 5 view .LVU220
	popq	%rbp
	.cfi_restore 6
	.cfi_def_cfa_offset 8
.LVL74:
	.loc 1 121 5 view .LVU221
	ret
.LVL75:
.L64:
	.cfi_restore_state
.LBB622:
.LBB613:
.LBB603:
	.loc 2 495 32 discriminator 1 view .LVU222
	movq	%rax, %rdi
.LVL76:
	.loc 2 495 32 discriminator 1 view .LVU223
	xorl	%esi, %esi
.LVL77:
.L53:
	.loc 2 495 32 discriminator 1 view .LVU224
.LBE603:
.LBB604:
.LBI604:
	.loc 2 51 13 is_stmt 1 view .LVU225
.LBB605:
	.loc 2 53 24 is_stmt 0 view .LVU226
	movq	%rbp, %rcx
	movq	%rsi, 40(%rsp)
	call	_ZN5boost16exception_detail12refcount_ptrINS0_20error_info_containerEE7releaseEv
.LVL78:
	.loc 2 53 24 view .LVU227
.LBE605:
.LBE604:
.LBE613:
.LBE622:
.LBB623:
.LBI623:
	.loc 1 81 9 is_stmt 1 view .LVU228
.LBB624:
	.loc 1 81 22 is_stmt 0 discriminator 1 view .LVU229
	movq	(%rbx), %rax
	movq	%rbx, %rcx
	call	*24(%rax)
.LVL79:
	.loc 1 81 22 discriminator 1 view .LVU230
	movq	%rdi, %rcx
.LEHB9:
	call	_Unwind_Resume
.LVL80:
.L61:
	.loc 1 81 22 discriminator 1 view .LVU231
.LBE624:
.LBE623:
.LBB625:
.LBB551:
.LBB547:
	.loc 1 71 69 discriminator 1 view .LVU232
	movq	%rbp, %rcx
	movq	%rax, %rsi
	call	_ZNSt13runtime_errorD2Ev
.LVL81:
.LBE547:
.LBE551:
.LBE625:
	.loc 1 114 26 discriminator 4 view .LVU233
	movq	%rbx, %rcx
	movl	$64, %edx
	call	_ZdlPvy
.LVL82:
	movq	%rsi, %rcx
	call	_Unwind_Resume
.LVL83:
.LEHE9:
.L63:
.LBB626:
.LBB614:
.LBB607:
.LBB606:
	.loc 2 53 24 view .LVU234
	movq	%rax, %rdi
.LVL84:
	.loc 2 53 24 view .LVU235
	jmp	.L53
.LVL85:
.L62:
	.loc 2 53 24 view .LVU236
.LBE606:
.LBE607:
.LBB608:
.LBB568:
.LBB569:
	movq	%rbp, %rcx
	movq	%rax, %rdi
.LVL86:
	.loc 2 53 24 view .LVU237
.LBE569:
.LBI568:
	.loc 2 51 13 is_stmt 1 view .LVU238
.LBB570:
	.loc 2 53 24 is_stmt 0 view .LVU239
	call	_ZN5boost16exception_detail12refcount_ptrINS0_20error_info_containerEE7releaseEv
.LVL87:
	.loc 2 53 24 view .LVU240
	jmp	.L53
.LBE570:
.LBE568:
.LBE608:
.LBE614:
.LBE626:
	.cfi_endproc
.LFE3791:
	.seh_handler	__gxx_personality_seh0, @unwind, @except
	.seh_handlerdata
.LLSDA3791:
	.byte	0xff
	.byte	0xff
	.byte	0x1
	.uleb128 .LLSDACSE3791-.LLSDACSB3791
.LLSDACSB3791:
	.uleb128 .LEHB3-.LFB3791
	.uleb128 .LEHE3-.LEHB3
	.uleb128 0
	.uleb128 0
	.uleb128 .LEHB4-.LFB3791
	.uleb128 .LEHE4-.LEHB4
	.uleb128 .L61-.LFB3791
	.uleb128 0
	.uleb128 .LEHB5-.LFB3791
	.uleb128 .LEHE5-.LEHB5
	.uleb128 .L64-.LFB3791
	.uleb128 0
	.uleb128 .LEHB6-.LFB3791
	.uleb128 .LEHE6-.LEHB6
	.uleb128 .L62-.LFB3791
	.uleb128 0
	.uleb128 .LEHB7-.LFB3791
	.uleb128 .LEHE7-.LEHB7
	.uleb128 .L63-.LFB3791
	.uleb128 0
	.uleb128 .LEHB8-.LFB3791
	.uleb128 .LEHE8-.LEHB8
	.uleb128 .L63-.LFB3791
	.uleb128 0
	.uleb128 .LEHB9-.LFB3791
	.uleb128 .LEHE9-.LEHB9
	.uleb128 0
	.uleb128 0
.LLSDACSE3791:
	.section	.text$_ZNK5boost10wrapexceptISt13runtime_errorE5cloneEv,"x"
	.linkonce discard
	.seh_endproc
	.section .rdata,"dr"
.LC1:
	.ascii "Type name demangling failed\0"
	.text
	.p2align 4
	.def	_ZN5boost9typeindexlsIcSt11char_traitsIcENS0_14stl_type_indexESt9type_infoEERSt13basic_ostreamIT_T0_ESA_RKNS0_17type_index_facadeIT1_T2_EE.isra.0;	.scl	3;	.type	32;	.endef
	.seh_proc	_ZN5boost9typeindexlsIcSt11char_traitsIcENS0_14stl_type_indexESt9type_infoEERSt13basic_ostreamIT_T0_ESA_RKNS0_17type_index_facadeIT1_T2_EE.isra.0
_ZN5boost9typeindexlsIcSt11char_traitsIcENS0_14stl_type_indexESt9type_infoEERSt13basic_ostreamIT_T0_ESA_RKNS0_17type_index_facadeIT1_T2_EE.isra.0:
.LVL88:
.LFB3819:
	.file 7 "D:/Compiler/anaconda/Library/include/boost/type_index/type_index_facade.hpp"
	.loc 7 277 43 is_stmt 1 view -0
	.cfi_startproc
	.loc 7 277 43 is_stmt 0 view .LVU242
	pushq	%r13
	.seh_pushreg	%r13
	.cfi_def_cfa_offset 16
	.cfi_offset 13, -16
	pushq	%r12
	.seh_pushreg	%r12
	.cfi_def_cfa_offset 24
	.cfi_offset 12, -24
	pushq	%rbp
	.seh_pushreg	%rbp
	.cfi_def_cfa_offset 32
	.cfi_offset 6, -32
	pushq	%rdi
	.seh_pushreg	%rdi
	.cfi_def_cfa_offset 40
	.cfi_offset 5, -40
	pushq	%rsi
	.seh_pushreg	%rsi
	.cfi_def_cfa_offset 48
	.cfi_offset 4, -48
	pushq	%rbx
	.seh_pushreg	%rbx
	.cfi_def_cfa_offset 56
	.cfi_offset 3, -56
	subq	$88, %rsp
	.seh_stackalloc	88
	.cfi_def_cfa_offset 144
	.seh_endprologue
.LVL89:
.LBB793:
.LBI793:
	.file 8 "D:/Compiler/anaconda/Library/include/boost/type_index/stl_type_index.hpp"
	.loc 8 134 20 is_stmt 1 view .LVU243
.LBB794:
	.loc 8 135 5 view .LVU244
	.loc 8 136 5 view .LVU245
	.loc 8 140 5 view .LVU246
.LBB795:
.LBI795:
	.file 9 "E:/MSYS2/mingw64/include/c++/14.1.0/typeinfo"
	.loc 9 102 17 view .LVU247
.LBB796:
	.loc 9 103 7 view .LVU248
	.loc 9 103 31 is_stmt 0 discriminator 1 view .LVU249
	xorl	%eax, %eax
.LBE796:
.LBE795:
.LBE794:
.LBE793:
	.loc 7 277 43 view .LVU250
	movq	%rcx, %rbp
.LBB995:
.LBB993:
.LBB801:
.LBB797:
	.loc 9 103 14 view .LVU251
	movq	8(%rdx), %rcx
.LVL90:
	.loc 9 103 14 view .LVU252
.LBE797:
.LBE801:
.LBB802:
.LBB803:
.LBB804:
	.file 10 "D:/Compiler/anaconda/Library/include/boost/core/demangle.hpp"
	.loc 10 85 31 view .LVU253
	leaq	48(%rsp), %r12
	leaq	44(%rsp), %r9
	movq	%r12, %r8
.LBE804:
.LBE803:
.LBE802:
.LBB811:
.LBB798:
	.loc 9 103 31 discriminator 1 view .LVU254
	cmpb	$42, (%rcx)
.LBE798:
.LBE811:
.LBB812:
.LBB808:
.LBB805:
	.loc 10 83 9 view .LVU255
	movl	$0, 44(%rsp)
	.loc 10 84 17 view .LVU256
	movq	$0, 48(%rsp)
.LBE805:
.LBE808:
.LBE812:
.LBB813:
.LBB799:
	.loc 9 103 31 discriminator 1 view .LVU257
	sete	%al
.LBE799:
.LBE813:
.LBB814:
.LBB809:
.LBB806:
	.loc 10 85 31 view .LVU258
	xorl	%edx, %edx
.LVL91:
	.loc 10 85 31 view .LVU259
.LBE806:
.LBE809:
.LBE814:
.LBB815:
.LBB800:
	.loc 9 103 31 discriminator 1 view .LVU260
	addq	%rax, %rcx
.LVL92:
	.loc 9 103 31 discriminator 1 view .LVU261
.LBE800:
.LBE815:
.LBB816:
.LBI802:
	.loc 10 59 14 is_stmt 1 view .LVU262
.LBB810:
.LBI803:
	.loc 10 81 21 view .LVU263
.LBB807:
	.loc 10 83 5 view .LVU264
	.loc 10 84 5 view .LVU265
	.loc 10 85 5 view .LVU266
	.loc 10 85 31 is_stmt 0 view .LVU267
	call	__cxa_demangle
.LVL93:
	.loc 10 85 31 view .LVU268
	movq	%rax, %rdi
.LVL94:
	.loc 10 85 31 view .LVU269
.LBE807:
.LBE810:
.LBE816:
	.loc 8 142 5 is_stmt 1 view .LVU270
	.loc 8 143 5 view .LVU271
	testq	%rax, %rax
	je	.L128
	.loc 8 147 5 view .LVU272
	.loc 8 147 51 is_stmt 0 view .LVU273
	movq	%rax, %rcx
	call	strlen
.LVL95:
	.loc 8 147 51 view .LVU274
	movq	%rax, %rsi
	movq	%rax, %r13
.LVL96:
	.loc 8 148 5 is_stmt 1 view .LVU275
	.loc 8 150 5 view .LVU276
.LBB817:
	cmpq	$36, %rax
	ja	.L129
	.loc 8 150 5 is_stmt 0 view .LVU277
.LBE817:
	.loc 8 179 5 is_stmt 1 view .LVU278
.LBB821:
.LBI821:
	.loc 5 161 7 view .LVU279
.LVL97:
	.loc 5 161 7 is_stmt 0 view .LVU280
.LBE821:
.LBB822:
.LBI822:
	.loc 3 765 9 is_stmt 1 view .LVU281
.LBB823:
.LBB824:
.LBI824:
	.loc 3 232 7 view .LVU282
	.loc 3 232 7 is_stmt 0 view .LVU283
.LBE824:
.LBB825:
.LBI825:
	.loc 3 193 2 is_stmt 1 view .LVU284
.LBB826:
	.loc 3 194 25 is_stmt 0 view .LVU285
	leaq	64(%rsp), %rcx
.LVL98:
	.loc 3 194 25 view .LVU286
.LBE826:
.LBE825:
	.loc 3 767 39 discriminator 2 view .LVU287
	xorl	%edx, %edx
.LBB831:
.LBB827:
	.loc 3 194 25 view .LVU288
	movq	%rcx, 48(%rsp)
.LVL99:
	.loc 3 194 25 view .LVU289
.LBE827:
.LBE831:
	.loc 3 767 39 discriminator 2 view .LVU290
	movq	%rdx, 56(%rsp)
.LVL100:
.LBB832:
.LBI832:
	.file 11 "E:/MSYS2/mingw64/include/c++/14.1.0/bits/basic_string.tcc"
	.loc 11 221 7 is_stmt 1 view .LVU291
.LBB833:
.LBB834:
.LBI834:
	.file 12 "E:/MSYS2/mingw64/include/c++/14.1.0/bits/stl_iterator_base_funcs.h"
	.loc 12 148 5 view .LVU292
.LBB835:
.LBI835:
	.loc 12 100 5 view .LVU293
	.loc 12 100 5 is_stmt 0 view .LVU294
.LBE835:
.LBE834:
	.loc 11 227 2 view .LVU295
	cmpq	$15, %rax
	ja	.L107
.LVL101:
.LBB838:
.LBI838:
	.loc 11 239 13 is_stmt 1 view .LVU296
	.loc 11 239 13 is_stmt 0 view .LVU297
.LBE838:
.LBB839:
.LBI839:
	.loc 3 227 7 is_stmt 1 view .LVU298
	.loc 3 227 7 is_stmt 0 view .LVU299
.LBE839:
.LBB840:
.LBI840:
	.loc 3 487 7 is_stmt 1 view .LVU300
.LBB841:
.LBI841:
	.loc 3 430 7 view .LVU301
.LBB842:
	.loc 3 432 2 is_stmt 0 view .LVU302
	cmpq	$1, %rax
	je	.L130
.LVL102:
.LBB843:
.LBI843:
	.loc 3 430 7 is_stmt 1 view .LVU303
.LBB844:
.LBI844:
	.file 13 "E:/MSYS2/mingw64/include/c++/14.1.0/bits/char_traits.h"
	.loc 13 419 7 view .LVU304
.LBB845:
	.loc 13 421 2 view .LVU305
	testq	%rax, %rax
	jne	.L131
.LVL103:
.L101:
	.loc 13 421 2 is_stmt 0 view .LVU306
.LBE845:
.LBE844:
.LBE843:
.LBE842:
.LBE841:
.LBE840:
.LBB862:
.LBI862:
	.loc 3 259 7 is_stmt 1 view .LVU307
.LBB863:
.LBB864:
.LBI864:
	.loc 3 222 7 view .LVU308
.LBE864:
.LBB866:
.LBB867:
	.loc 13 350 7 is_stmt 0 view .LVU309
	movq	48(%rsp), %rax
.LBE867:
.LBE866:
.LBB870:
.LBB865:
	.loc 3 223 26 view .LVU310
	movq	%rsi, 56(%rsp)
.LVL104:
	.loc 3 223 26 view .LVU311
.LBE865:
.LBE870:
.LBB871:
.LBI871:
	.loc 3 227 7 is_stmt 1 view .LVU312
	.loc 3 227 7 is_stmt 0 view .LVU313
.LBE871:
.LBB872:
.LBI866:
	.loc 13 343 7 is_stmt 1 view .LVU314
.LBB868:
	.loc 13 346 2 view .LVU315
	.loc 13 350 2 view .LVU316
.LBE868:
.LBE872:
.LBE863:
.LBE862:
.LBE833:
.LBE832:
.LBE823:
.LBE822:
.LBB943:
.LBB944:
.LBB945:
	.loc 10 90 14 is_stmt 0 view .LVU317
	movq	%rdi, %rcx
.LBE945:
.LBE944:
.LBE943:
.LBB948:
.LBB939:
.LBB927:
.LBB921:
.LBB875:
.LBB874:
.LBB873:
.LBB869:
	.loc 13 350 7 view .LVU318
	movb	$0, (%rax,%rsi)
.LVL105:
	.loc 13 350 7 view .LVU319
.LBE869:
.LBE873:
.LBE874:
.LBE875:
.LBB876:
.LBI876:
	.loc 11 242 4 is_stmt 1 view .LVU320
	.loc 11 242 4 is_stmt 0 view .LVU321
.LBE876:
.LBE921:
.LBE927:
.LBE939:
.LBE948:
.LBB949:
.LBI949:
	.loc 5 182 7 is_stmt 1 view .LVU322
	.loc 5 182 7 is_stmt 0 view .LVU323
.LBE949:
.LBB950:
.LBI943:
	.loc 10 64 5 is_stmt 1 view .LVU324
	.loc 10 66 9 view .LVU325
.LBB947:
.LBI944:
	.loc 10 88 13 view .LVU326
.LBB946:
	.loc 10 90 5 view .LVU327
	.loc 10 90 14 is_stmt 0 view .LVU328
	call	free
.LVL106:
	.loc 10 90 14 view .LVU329
.LBE946:
.LBE947:
.LBE950:
.LBE993:
.LBE995:
.LBB996:
.LBI996:
	.loc 3 4077 5 is_stmt 1 view .LVU330
.LBB997:
.LBB998:
.LBI998:
	.loc 3 1076 7 view .LVU331
	.loc 3 1076 7 is_stmt 0 view .LVU332
.LBE998:
.LBB999:
.LBI999:
	.loc 3 2653 7 is_stmt 1 view .LVU333
.LBB1000:
.LBI1000:
	.loc 3 227 7 view .LVU334
	.loc 3 227 7 is_stmt 0 view .LVU335
.LBE1000:
.LBE999:
	.loc 3 4082 30 discriminator 2 view .LVU336
	movq	56(%rsp), %r8
	movq	48(%rsp), %rdx
	movq	%rbp, %rcx
.LEHB10:
	call	_ZSt16__ostream_insertIcSt11char_traitsIcEERSt13basic_ostreamIT_T0_ES6_PKS3_x
.LVL107:
.LEHE10:
	.loc 3 4082 30 discriminator 2 view .LVU337
.LBE997:
.LBE996:
.LBB1001:
.LBI1001:
	.loc 3 808 7 is_stmt 1 view .LVU338
.LBB1002:
	.loc 3 809 19 is_stmt 0 view .LVU339
	movq	%r12, %rcx
	call	_ZNSt7__cxx1112basic_stringIcSt11char_traitsIcESaIcEE10_M_disposeEv
.LVL108:
.LBB1003:
.LBI1003:
	.loc 3 186 14 is_stmt 1 view .LVU340
.LBB1004:
.LBI1004:
	.loc 5 182 7 view .LVU341
	.loc 5 182 7 is_stmt 0 view .LVU342
.LBE1004:
.LBE1003:
.LBE1002:
.LBE1001:
	.loc 7 283 1 view .LVU343
	movq	%rbp, %rax
	addq	$88, %rsp
	.cfi_remember_state
	.cfi_def_cfa_offset 56
	popq	%rbx
	.cfi_restore 3
	.cfi_def_cfa_offset 48
	popq	%rsi
	.cfi_restore 4
	.cfi_def_cfa_offset 40
	popq	%rdi
	.cfi_restore 5
	.cfi_def_cfa_offset 32
	popq	%rbp
	.cfi_restore 6
	.cfi_def_cfa_offset 24
.LVL109:
	.loc 7 283 1 view .LVU344
	popq	%r12
	.cfi_restore 12
	.cfi_def_cfa_offset 16
	popq	%r13
	.cfi_restore 13
	.cfi_def_cfa_offset 8
	ret
.LVL110:
.L129:
	.cfi_restore_state
.LBB1005:
.LBB994:
.LBB951:
.LBB818:
	.loc 8 151 9 is_stmt 1 view .LVU345
	.loc 8 151 36 is_stmt 0 view .LVU346
	leaq	_ZZNK5boost9typeindex14stl_type_index11pretty_nameB5cxx11EvE14cvr_saver_name(%rip), %rdx
	movq	%rdi, %rcx
	call	strstr
.LVL111:
	.loc 8 152 9 is_stmt 1 view .LVU347
.LBB819:
	testq	%rax, %rax
	je	.L87
.LBB820:
	.loc 8 153 13 view .LVU348
	.loc 8 156 23 is_stmt 0 view .LVU349
	cmpb	$32, 36(%rax)
	.loc 8 153 15 view .LVU350
	leaq	36(%rax), %rbx
.LVL112:
	.loc 8 156 13 is_stmt 1 view .LVU351
	.loc 8 156 23 view .LVU352
	jne	.L88
	.p2align 4,,10
	.p2align 3
.L89:
	.loc 8 157 17 view .LVU353
	addq	$1, %rbx
.LVL113:
	.loc 8 156 23 view .LVU354
	cmpb	$32, (%rbx)
	je	.L89
.L88:
	.loc 8 161 13 view .LVU355
	.loc 8 161 25 is_stmt 0 view .LVU356
	leaq	-1(%rdi,%r13), %rdx
.LVL114:
	.loc 8 162 13 is_stmt 1 view .LVU357
	.loc 8 162 26 view .LVU358
	cmpq	%rdx, %rbx
	jb	.L90
	.loc 8 162 26 is_stmt 0 view .LVU359
	jmp	.L87
	.p2align 4,,10
	.p2align 3
.L92:
	.loc 8 163 17 is_stmt 1 view .LVU360
	subq	$1, %rdx
.LVL115:
	.loc 8 162 26 view .LVU361
	cmpq	%rbx, %rdx
	je	.L87
.L90:
	.loc 8 162 26 is_stmt 0 discriminator 1 view .LVU362
	cmpb	$62, (%rdx)
	jne	.L92
	.loc 8 167 26 is_stmt 1 view .LVU363
	cmpq	%rdx, %rbx
	jb	.L91
	jmp	.L87
	.p2align 4,,10
	.p2align 3
.L94:
	.loc 8 168 17 view .LVU364
	subq	$1, %rdx
.LVL116:
	.loc 8 167 26 view .LVU365
	cmpq	%rbx, %rdx
	je	.L87
.L91:
	.loc 8 167 26 is_stmt 0 discriminator 1 view .LVU366
	cmpb	$32, -1(%rdx)
	je	.L94
	.loc 8 171 13 is_stmt 1 view .LVU367
	cmpq	%rdx, %rbx
	jnb	.L87
.LVL117:
	.loc 8 171 13 is_stmt 0 view .LVU368
.LBE820:
.LBE819:
.LBE818:
.LBE951:
	.loc 8 179 5 is_stmt 1 view .LVU369
.LBB952:
	.loc 5 161 7 view .LVU370
	.loc 5 161 7 is_stmt 0 view .LVU371
.LBE952:
.LBB953:
	.loc 3 765 9 is_stmt 1 view .LVU372
.LBB940:
.LBB928:
	.loc 3 232 7 view .LVU373
	.loc 3 232 7 is_stmt 0 view .LVU374
.LBE928:
.LBB929:
	.loc 3 193 2 is_stmt 1 view .LVU375
.LBE929:
.LBB930:
.LBB922:
	.loc 11 225 21 is_stmt 0 discriminator 1 view .LVU376
	movq	%rdx, %rsi
.LVL118:
	.loc 11 225 21 discriminator 1 view .LVU377
.LBE922:
.LBE930:
.LBB931:
.LBB828:
	.loc 3 194 25 view .LVU378
	leaq	64(%rsp), %rcx
.LVL119:
	.loc 3 194 25 view .LVU379
.LBE828:
.LBE931:
	.loc 3 767 39 discriminator 2 view .LVU380
	xorl	%r8d, %r8d
.LBB932:
.LBB923:
	.loc 11 225 21 discriminator 1 view .LVU381
	subq	%rbx, %rsi
.LBE923:
.LBE932:
.LBB933:
.LBB829:
	.loc 3 194 25 view .LVU382
	movq	%rcx, 48(%rsp)
.LVL120:
	.loc 3 194 25 view .LVU383
.LBE829:
.LBE933:
	.loc 3 767 39 discriminator 2 view .LVU384
	movq	%r8, 56(%rsp)
.LVL121:
.LBB934:
	.loc 11 221 7 is_stmt 1 view .LVU385
.LBB924:
.LBB877:
	.loc 12 148 5 view .LVU386
.LBB836:
	.loc 12 100 5 view .LVU387
	.loc 12 100 5 is_stmt 0 view .LVU388
.LBE836:
.LBE877:
	.loc 11 227 2 view .LVU389
	cmpq	$15, %rsi
	jg	.L132
.LVL122:
.LBB878:
	.loc 11 239 13 is_stmt 1 view .LVU390
	.loc 11 239 13 is_stmt 0 view .LVU391
.LBE878:
.LBB879:
	.loc 3 227 7 is_stmt 1 view .LVU392
	.loc 3 227 7 is_stmt 0 view .LVU393
.LBE879:
.LBB880:
	.loc 3 487 7 is_stmt 1 view .LVU394
.LBB858:
	.loc 3 430 7 view .LVU395
.LBB854:
	.loc 3 432 2 is_stmt 0 view .LVU396
	cmpq	$1, %rsi
	jne	.L99
.LVL123:
.L106:
.LBB850:
.LBI850:
	.loc 13 343 7 is_stmt 1 view .LVU397
.LBB851:
	.loc 13 346 2 view .LVU398
	.loc 13 350 2 view .LVU399
	.loc 13 350 9 is_stmt 0 view .LVU400
	movzbl	(%rbx), %eax
	.loc 13 351 7 view .LVU401
	movl	$1, %esi
.LVL124:
	.loc 13 350 7 view .LVU402
	movb	%al, 64(%rsp)
.LVL125:
	.loc 13 351 7 view .LVU403
	jmp	.L101
.LVL126:
.L87:
	.loc 13 351 7 view .LVU404
.LBE851:
.LBE850:
.LBE854:
.LBE858:
.LBE880:
.LBE924:
.LBE934:
.LBE940:
.LBE953:
	.loc 8 179 5 is_stmt 1 view .LVU405
.LBB954:
	.loc 5 161 7 view .LVU406
	.loc 5 161 7 is_stmt 0 view .LVU407
.LBE954:
.LBB955:
	.loc 3 765 9 is_stmt 1 view .LVU408
.LBB941:
.LBB935:
	.loc 3 232 7 view .LVU409
	.loc 3 232 7 is_stmt 0 view .LVU410
.LBE935:
.LBB936:
	.loc 3 193 2 is_stmt 1 view .LVU411
.LBB830:
	.loc 3 194 25 is_stmt 0 view .LVU412
	leaq	64(%rsp), %rax
.LVL127:
	.loc 3 194 25 view .LVU413
	movq	%rax, 48(%rsp)
.LVL128:
	.loc 3 194 25 view .LVU414
.LBE830:
.LBE936:
	.loc 3 767 39 discriminator 2 view .LVU415
	xorl	%eax, %eax
	movq	%rax, 56(%rsp)
.LVL129:
.LBB937:
	.loc 11 221 7 is_stmt 1 view .LVU416
.LBB925:
.LBB881:
	.loc 12 148 5 view .LVU417
.LBB837:
	.loc 12 100 5 view .LVU418
.L107:
	.loc 12 100 5 is_stmt 0 view .LVU419
.LBE837:
.LBE881:
.LBB882:
.LBB883:
	.loc 11 159 25 view .LVU420
	leaq	1(%r13), %rcx
.LVL130:
.LBB884:
.LBI884:
	.loc 3 129 7 is_stmt 1 view .LVU421
.LBB885:
.LBB886:
.LBI886:
	.loc 4 477 7 view .LVU422
.LBB887:
.LBI887:
	.loc 5 187 7 view .LVU423
.LBB888:
.LBI888:
	.loc 6 126 7 view .LVU424
.LBE888:
.LBE887:
.LBE886:
.LBE885:
.LBE884:
	.loc 11 159 25 is_stmt 0 view .LVU425
	movq	%rdi, %rbx
.LVL131:
.L98:
.LEHB11:
.LBB904:
.LBB901:
.LBB898:
.LBB895:
.LBB892:
.LBB889:
	.loc 6 151 41 view .LVU426
	call	_Znwy
.LVL132:
	.loc 6 151 41 view .LVU427
.LBE889:
.LBE892:
.LBE895:
.LBE898:
.LBE901:
.LBE904:
.LBE883:
.LBE882:
.LBB909:
.LBB910:
	.loc 3 218 26 view .LVU428
	movq	%rax, 48(%rsp)
.LBE910:
.LBE909:
.LBB911:
.LBB907:
.LBB905:
.LBB902:
.LBB899:
.LBB896:
.LBB893:
.LBB890:
	.loc 6 151 41 view .LVU429
	movq	%rax, %rcx
.LVL133:
	.loc 6 151 41 view .LVU430
.LBE890:
.LBE893:
.LBE896:
.LBE899:
.LBE902:
.LBE905:
.LBE907:
.LBE911:
.LBB912:
.LBI909:
	.loc 3 217 7 is_stmt 1 view .LVU431
	.loc 3 217 7 is_stmt 0 view .LVU432
.LBE912:
.LBB913:
.LBI913:
	.loc 3 254 7 is_stmt 1 view .LVU433
.LBB914:
	.loc 3 255 31 is_stmt 0 view .LVU434
	movq	%rsi, 64(%rsp)
.LVL134:
	.loc 3 255 31 view .LVU435
.LBE914:
.LBE913:
.LBB915:
	.loc 11 239 13 is_stmt 1 view .LVU436
	.loc 11 239 13 is_stmt 0 view .LVU437
.LBE915:
.LBB916:
	.loc 3 227 7 is_stmt 1 view .LVU438
	.loc 3 227 7 is_stmt 0 view .LVU439
.LBE916:
.LBB917:
	.loc 3 487 7 is_stmt 1 view .LVU440
.LBB859:
	.loc 3 430 7 view .LVU441
.L99:
.LBB855:
.LBB852:
.LBB848:
.LBB846:
	.loc 13 424 2 view .LVU442
	.loc 13 427 2 view .LVU443
	.loc 13 427 49 is_stmt 0 view .LVU444
	movq	%rsi, %r8
	movq	%rbx, %rdx
	call	memcpy
.LVL135:
	.loc 13 427 66 view .LVU445
	jmp	.L101
.LVL136:
.L128:
	.loc 13 427 66 view .LVU446
.LBE846:
.LBE848:
.LBE852:
.LBE855:
.LBE859:
.LBE917:
.LBE925:
.LBE937:
.LBE941:
.LBE955:
	.loc 8 144 9 is_stmt 1 view .LVU447
	.loc 8 144 80 is_stmt 0 view .LVU448
	leaq	.LC1(%rip), %rdx
	movq	%r12, %rcx
	call	_ZNSt13runtime_errorC1EPKc
.LVL137:
.LEHE11:
.LBB956:
.LBI956:
	.loc 1 162 55 is_stmt 1 view .LVU449
.LBB957:
	.loc 1 165 5 is_stmt 0 view .LVU450
	movl	$64, %ecx
	call	__cxa_allocate_exception
.LVL138:
.LBB958:
.LBB959:
.LBB960:
	.loc 1 97 46 discriminator 1 view .LVU451
	movq	%r12, %rdx
.LBE960:
.LBE959:
.LBE958:
	.loc 1 165 5 view .LVU452
	movq	%rax, %rbx
.LVL139:
.LBB986:
.LBI958:
	.loc 1 97 14 is_stmt 1 view .LVU453
.LBB983:
.LBB980:
.LBB961:
.LBI961:
	.loc 2 476 9 view .LVU454
.LBB962:
	leaq	16+_ZTVN5boost16exception_detail10clone_baseE(%rip), %rax
.LVL140:
	.loc 2 476 9 is_stmt 0 view .LVU455
	movq	%rax, (%rbx)
.LVL141:
	.loc 2 476 9 view .LVU456
.LBE962:
.LBE961:
	.loc 1 97 46 discriminator 1 view .LVU457
	leaq	8(%rbx), %rcx
	call	_ZNSt13runtime_errorC2ERKS_
.LVL142:
.LBB963:
.LBI963:
	.loc 2 260 9 is_stmt 1 view .LVU458
.LBB964:
.LBB965:
.LBB966:
.LBI966:
	.loc 2 46 13 view .LVU459
.LBE966:
.LBE965:
.LBE964:
.LBE963:
	.loc 1 97 46 is_stmt 0 discriminator 1 view .LVU460
	leaq	64+_ZTVN5boost10wrapexceptISt13runtime_errorEE(%rip), %rax
.LBB975:
.LBB971:
.LBB967:
	.loc 2 261 13 view .LVU461
	xorl	%r9d, %r9d
.LBE967:
.LBE971:
.LBE975:
	.loc 1 97 46 discriminator 1 view .LVU462
	movq	.LC0(%rip), %xmm0
	movq	%rax, %xmm1
	addq	$40, %rax
.LBB976:
.LBB972:
.LBB968:
	.loc 2 261 13 view .LVU463
	movq	%r9, 32(%rbx)
.LBE968:
.LBE972:
.LBE976:
.LBE980:
.LBE983:
.LBE986:
	.loc 1 165 5 discriminator 2 view .LVU464
	movq	%rbx, %rcx
.LBB987:
.LBB984:
.LBB981:
.LBB977:
.LBB973:
.LBB969:
	.loc 2 262 13 view .LVU465
	movq	%r9, 40(%rbx)
.LBE969:
.LBE973:
.LBE977:
	.loc 1 97 46 discriminator 1 view .LVU466
	punpcklqdq	%xmm1, %xmm0
.LBE981:
.LBE984:
.LBE987:
	.loc 1 165 5 discriminator 2 view .LVU467
	leaq	_ZN5boost10wrapexceptISt13runtime_errorED1Ev(%rip), %r8
	leaq	_ZTIN5boost10wrapexceptISt13runtime_errorEE(%rip), %rdx
.LBB988:
.LBB985:
.LBB982:
.LBB978:
.LBB974:
.LBB970:
	.loc 2 262 13 view .LVU468
	movq	%r9, 48(%rbx)
	.loc 2 263 13 view .LVU469
	movq	$-1, 56(%rbx)
.LVL143:
	.loc 2 263 13 view .LVU470
.LBE970:
.LBE974:
.LBE978:
	.loc 1 97 46 discriminator 1 view .LVU471
	movq	%rax, 24(%rbx)
.LVL144:
.LBB979:
.LBI979:
	.loc 1 86 10 is_stmt 1 view .LVU472
	.loc 1 86 10 is_stmt 0 view .LVU473
.LBE979:
	.loc 1 97 46 discriminator 1 view .LVU474
	movups	%xmm0, (%rbx)
.LEHB12:
.LBE982:
.LBE985:
.LBE988:
	.loc 1 165 5 discriminator 2 view .LVU475
	call	__cxa_throw
.LVL145:
.LEHE12:
.L130:
	.loc 1 165 5 discriminator 2 view .LVU476
.LBE957:
.LBE956:
.LBB989:
.LBB942:
.LBB938:
.LBB926:
.LBB918:
.LBB860:
.LBB856:
	movq	%rdi, %rbx
	jmp	.L106
.LVL146:
.L132:
	.loc 1 165 5 discriminator 2 view .LVU477
.LBE856:
.LBE860:
.LBE918:
.LBB919:
.LBB908:
.LBB906:
	.loc 3 129 7 is_stmt 1 view .LVU478
.LBB903:
.LBB900:
	.loc 4 477 7 view .LVU479
.LBB897:
	.loc 5 187 7 view .LVU480
.LBB894:
	.loc 6 126 7 view .LVU481
.LBB891:
	.loc 6 134 2 is_stmt 0 discriminator 1 view .LVU482
	movq	%rsi, %rcx
	addq	$1, %rcx
.LVL147:
	.loc 6 134 2 discriminator 1 view .LVU483
	jns	.L98
.LEHB13:
	.loc 6 140 28 view .LVU484
	call	_ZSt17__throw_bad_allocv
.LVL148:
.LEHE13:
.L131:
	.loc 6 140 28 view .LVU485
.LBE891:
.LBE894:
.LBE897:
.LBE900:
.LBE903:
.LBE906:
.LBE908:
.LBE919:
.LBB920:
.LBB861:
.LBB857:
.LBB853:
.LBB849:
.LBB847:
	movq	%rdi, %rbx
	jmp	.L99
.LVL149:
.L110:
	.loc 6 140 28 view .LVU486
.LBE847:
.LBE849:
.LBE853:
.LBE857:
.LBE861:
.LBE920:
.LBE926:
.LBE938:
.LBE942:
.LBE989:
	.loc 8 144 37 discriminator 3 view .LVU487
	movq	%r12, %rcx
	movq	%rax, %rbx
.LVL150:
	.loc 8 144 37 discriminator 3 view .LVU488
	call	_ZNSt13runtime_errorD1Ev
.LVL151:
.L104:
.LBB990:
.LBI990:
	.loc 10 64 5 is_stmt 1 view .LVU489
	.loc 10 66 9 view .LVU490
.LBB991:
.LBI991:
	.loc 10 88 13 view .LVU491
.LBB992:
	.loc 10 90 5 view .LVU492
	.loc 10 90 14 is_stmt 0 view .LVU493
	movq	%rdi, %rcx
	call	free
.LVL152:
	.loc 10 90 14 view .LVU494
	movq	%rbx, %rcx
.LEHB14:
	call	_Unwind_Resume
.LVL153:
.L109:
	movq	%rax, %rbx
	jmp	.L104
.LVL154:
.L108:
	.loc 10 90 14 view .LVU495
.LBE992:
.LBE991:
.LBE990:
.LBE994:
.LBE1005:
.LBB1006:
.LBB1007:
	.loc 3 809 19 view .LVU496
	movq	%rax, %rbx
.LVL155:
	.loc 3 809 19 view .LVU497
.LBE1007:
.LBI1006:
	.loc 3 808 7 is_stmt 1 view .LVU498
.LBB1010:
	.loc 3 809 19 is_stmt 0 view .LVU499
	movq	%r12, %rcx
	call	_ZNSt7__cxx1112basic_stringIcSt11char_traitsIcESaIcEE10_M_disposeEv
.LVL156:
.LBB1008:
.LBI1008:
	.loc 3 186 14 is_stmt 1 view .LVU500
.LBB1009:
.LBI1009:
	.loc 5 182 7 view .LVU501
	.loc 5 182 7 is_stmt 0 view .LVU502
	movq	%rbx, %rcx
	call	_Unwind_Resume
	nop
.LVL157:
.LEHE14:
.LBE1009:
.LBE1008:
.LBE1010:
.LBE1006:
	.cfi_endproc
.LFE3819:
	.seh_handler	__gxx_personality_seh0, @unwind, @except
	.seh_handlerdata
.LLSDA3819:
	.byte	0xff
	.byte	0xff
	.byte	0x1
	.uleb128 .LLSDACSE3819-.LLSDACSB3819
.LLSDACSB3819:
	.uleb128 .LEHB10-.LFB3819
	.uleb128 .LEHE10-.LEHB10
	.uleb128 .L108-.LFB3819
	.uleb128 0
	.uleb128 .LEHB11-.LFB3819
	.uleb128 .LEHE11-.LEHB11
	.uleb128 .L109-.LFB3819
	.uleb128 0
	.uleb128 .LEHB12-.LFB3819
	.uleb128 .LEHE12-.LEHB12
	.uleb128 .L110-.LFB3819
	.uleb128 0
	.uleb128 .LEHB13-.LFB3819
	.uleb128 .LEHE13-.LEHB13
	.uleb128 .L109-.LFB3819
	.uleb128 0
	.uleb128 .LEHB14-.LFB3819
	.uleb128 .LEHE14-.LEHB14
	.uleb128 0
	.uleb128 0
.LLSDACSE3819:
	.text
	.seh_endproc
	.section .rdata,"dr"
.LC3:
	.ascii "\12\0"
	.section	.text.startup,"x"
	.p2align 4
	.globl	main
	.def	main;	.scl	2;	.type	32;	.endef
	.seh_proc	main
main:
.LFB3182:
	.file 14 "C:/Users/zhb15/Desktop/test/code/source/main.cpp"
	.loc 14 28 12 is_stmt 1 view -0
	.cfi_startproc
	pushq	%rsi
	.seh_pushreg	%rsi
	.cfi_def_cfa_offset 16
	.cfi_offset 4, -16
	pushq	%rbx
	.seh_pushreg	%rbx
	.cfi_def_cfa_offset 24
	.cfi_offset 3, -24
	subq	$40, %rsp
	.seh_stackalloc	40
	.cfi_def_cfa_offset 64
	.seh_endprologue
.LBB1067:
.LBB1068:
	.file 15 "E:/MSYS2/mingw64/include/c++/14.1.0/ostream"
	.loc 15 673 18 is_stmt 0 view .LVU504
	leaq	.LC3(%rip), %rbx
.LBE1068:
.LBE1067:
	.loc 14 28 12 view .LVU505
	call	__main
.LVL158:
	.loc 14 29 5 is_stmt 1 view .LVU506
	.loc 14 30 5 view .LVU507
	.loc 14 31 5 view .LVU508
	.loc 14 32 5 view .LVU509
.LBB1071:
.LBI1071:
	.file 16 "D:/Compiler/anaconda/Library/include/boost/type_index.hpp"
	.loc 16 231 19 view .LVU510
.LBB1072:
.LBI1072:
	.loc 8 254 23 view .LVU511
.LBB1073:
.LBB1074:
.LBI1074:
	.loc 8 93 12 view .LVU512
	.loc 8 93 12 is_stmt 0 view .LVU513
.LBE1074:
.LBE1073:
.LBE1072:
.LBE1071:
	.loc 14 32 65 discriminator 1 view .LVU514
	movq	.refptr._ZSt4cout(%rip), %rsi
	leaq	_ZTISt5arrayIcLy10EE(%rip), %rdx
	movq	%rsi, %rcx
	call	_ZN5boost9typeindexlsIcSt11char_traitsIcENS0_14stl_type_indexESt9type_infoEERSt13basic_ostreamIT_T0_ESA_RKNS0_17type_index_facadeIT1_T2_EE.isra.0
.LVL159:
.LBB1075:
.LBB1069:
	.loc 15 673 18 view .LVU515
	movl	$1, %r8d
	movq	%rbx, %rdx
.LBE1069:
.LBE1075:
	.loc 14 32 65 discriminator 1 view .LVU516
	movq	%rax, %rcx
.LVL160:
.LBB1076:
.LBI1067:
	.loc 15 668 5 is_stmt 1 view .LVU517
.LBB1070:
	.loc 15 673 18 is_stmt 0 view .LVU518
	call	_ZSt16__ostream_insertIcSt11char_traitsIcEERSt13basic_ostreamIT_T0_ES6_PKS3_x
.LVL161:
	.loc 15 673 18 view .LVU519
.LBE1070:
.LBE1076:
	.loc 14 33 5 is_stmt 1 view .LVU520
.LBB1077:
.LBI1077:
	.loc 16 231 19 view .LVU521
.LBB1078:
.LBI1078:
	.loc 8 254 23 view .LVU522
.LBB1079:
.LBB1080:
.LBI1080:
	.loc 8 93 12 view .LVU523
	.loc 8 93 12 is_stmt 0 view .LVU524
.LBE1080:
.LBE1079:
.LBE1078:
.LBE1077:
	.loc 14 33 65 discriminator 1 view .LVU525
	movq	%rsi, %rcx
	leaq	_ZTISt6vectorIcSaIcEE(%rip), %rdx
	call	_ZN5boost9typeindexlsIcSt11char_traitsIcENS0_14stl_type_indexESt9type_infoEERSt13basic_ostreamIT_T0_ESA_RKNS0_17type_index_facadeIT1_T2_EE.isra.0
.LVL162:
.LBB1081:
.LBB1082:
	.loc 15 673 18 view .LVU526
	movl	$1, %r8d
	movq	%rbx, %rdx
.LBE1082:
.LBE1081:
	.loc 14 33 65 discriminator 1 view .LVU527
	movq	%rax, %rcx
.LVL163:
.LBB1084:
.LBI1081:
	.loc 15 668 5 is_stmt 1 view .LVU528
.LBB1083:
	.loc 15 673 18 is_stmt 0 view .LVU529
	call	_ZSt16__ostream_insertIcSt11char_traitsIcEERSt13basic_ostreamIT_T0_ES6_PKS3_x
.LVL164:
	.loc 15 673 18 view .LVU530
.LBE1083:
.LBE1084:
	.loc 14 34 5 is_stmt 1 view .LVU531
.LBB1085:
.LBI1085:
	.loc 16 231 19 view .LVU532
.LBB1086:
.LBI1086:
	.loc 8 254 23 view .LVU533
.LBB1087:
.LBB1088:
.LBI1088:
	.loc 8 93 12 view .LVU534
	.loc 8 93 12 is_stmt 0 view .LVU535
.LBE1088:
.LBE1087:
.LBE1086:
.LBE1085:
	.loc 14 34 65 discriminator 1 view .LVU536
	movq	%rsi, %rcx
	leaq	_ZTISt6vectorIiSaIiEE(%rip), %rdx
	call	_ZN5boost9typeindexlsIcSt11char_traitsIcENS0_14stl_type_indexESt9type_infoEERSt13basic_ostreamIT_T0_ESA_RKNS0_17type_index_facadeIT1_T2_EE.isra.0
.LVL165:
.LBB1089:
.LBB1090:
	.loc 15 673 18 view .LVU537
	movl	$1, %r8d
	movq	%rbx, %rdx
.LBE1090:
.LBE1089:
	.loc 14 34 65 discriminator 1 view .LVU538
	movq	%rax, %rcx
.LVL166:
.LBB1092:
.LBI1089:
	.loc 15 668 5 is_stmt 1 view .LVU539
.LBB1091:
	.loc 15 673 18 is_stmt 0 view .LVU540
	call	_ZSt16__ostream_insertIcSt11char_traitsIcEERSt13basic_ostreamIT_T0_ES6_PKS3_x
.LVL167:
	.loc 15 673 18 view .LVU541
.LBE1091:
.LBE1092:
	.loc 14 35 1 view .LVU542
	xorl	%eax, %eax
	addq	$40, %rsp
	.cfi_def_cfa_offset 24
	popq	%rbx
	.cfi_restore 3
	.cfi_def_cfa_offset 16
	popq	%rsi
	.cfi_restore 4
	.cfi_def_cfa_offset 8
	ret
	.cfi_endproc
.LFE3182:
	.seh_endproc
	.globl	_ZTSSt12_Vector_baseIcSaIcEE
	.section	.rdata$_ZTSSt12_Vector_baseIcSaIcEE,"dr"
	.linkonce same_size
	.align 16
_ZTSSt12_Vector_baseIcSaIcEE:
	.ascii "St12_Vector_baseIcSaIcEE\0"
	.globl	_ZTISt12_Vector_baseIcSaIcEE
	.section	.rdata$_ZTISt12_Vector_baseIcSaIcEE,"dr"
	.linkonce same_size
	.align 8
_ZTISt12_Vector_baseIcSaIcEE:
	.quad	_ZTVN10__cxxabiv117__class_type_infoE+16
	.quad	_ZTSSt12_Vector_baseIcSaIcEE
	.globl	_ZTSSt12_Vector_baseIiSaIiEE
	.section	.rdata$_ZTSSt12_Vector_baseIiSaIiEE,"dr"
	.linkonce same_size
	.align 16
_ZTSSt12_Vector_baseIiSaIiEE:
	.ascii "St12_Vector_baseIiSaIiEE\0"
	.globl	_ZTISt12_Vector_baseIiSaIiEE
	.section	.rdata$_ZTISt12_Vector_baseIiSaIiEE,"dr"
	.linkonce same_size
	.align 8
_ZTISt12_Vector_baseIiSaIiEE:
	.quad	_ZTVN10__cxxabiv117__class_type_infoE+16
	.quad	_ZTSSt12_Vector_baseIiSaIiEE
	.globl	_ZTSSt9exception
	.section	.rdata$_ZTSSt9exception,"dr"
	.linkonce same_size
	.align 8
_ZTSSt9exception:
	.ascii "St9exception\0"
	.globl	_ZTISt9exception
	.section	.rdata$_ZTISt9exception,"dr"
	.linkonce same_size
	.align 8
_ZTISt9exception:
	.quad	_ZTVN10__cxxabiv117__class_type_infoE+16
	.quad	_ZTSSt9exception
	.globl	_ZTSSt13runtime_error
	.section	.rdata$_ZTSSt13runtime_error,"dr"
	.linkonce same_size
	.align 16
_ZTSSt13runtime_error:
	.ascii "St13runtime_error\0"
	.globl	_ZTISt13runtime_error
	.section	.rdata$_ZTISt13runtime_error,"dr"
	.linkonce same_size
	.align 8
_ZTISt13runtime_error:
	.quad	_ZTVN10__cxxabiv120__si_class_type_infoE+16
	.quad	_ZTSSt13runtime_error
	.quad	_ZTISt9exception
	.globl	_ZTSN5boost9exceptionE
	.section	.rdata$_ZTSN5boost9exceptionE,"dr"
	.linkonce same_size
	.align 16
_ZTSN5boost9exceptionE:
	.ascii "N5boost9exceptionE\0"
	.globl	_ZTIN5boost9exceptionE
	.section	.rdata$_ZTIN5boost9exceptionE,"dr"
	.linkonce same_size
	.align 8
_ZTIN5boost9exceptionE:
	.quad	_ZTVN10__cxxabiv117__class_type_infoE+16
	.quad	_ZTSN5boost9exceptionE
	.globl	_ZTSN5boost16exception_detail10clone_baseE
	.section	.rdata$_ZTSN5boost16exception_detail10clone_baseE,"dr"
	.linkonce same_size
	.align 32
_ZTSN5boost16exception_detail10clone_baseE:
	.ascii "N5boost16exception_detail10clone_baseE\0"
	.globl	_ZTIN5boost16exception_detail10clone_baseE
	.section	.rdata$_ZTIN5boost16exception_detail10clone_baseE,"dr"
	.linkonce same_size
	.align 8
_ZTIN5boost16exception_detail10clone_baseE:
	.quad	_ZTVN10__cxxabiv117__class_type_infoE+16
	.quad	_ZTSN5boost16exception_detail10clone_baseE
	.globl	_ZTSN5boost10wrapexceptISt13runtime_errorEE
	.section	.rdata$_ZTSN5boost10wrapexceptISt13runtime_errorEE,"dr"
	.linkonce same_size
	.align 32
_ZTSN5boost10wrapexceptISt13runtime_errorEE:
	.ascii "N5boost10wrapexceptISt13runtime_errorEE\0"
	.globl	_ZTIN5boost10wrapexceptISt13runtime_errorEE
	.section	.rdata$_ZTIN5boost10wrapexceptISt13runtime_errorEE,"dr"
	.linkonce same_size
	.align 8
_ZTIN5boost10wrapexceptISt13runtime_errorEE:
	.quad	_ZTVN10__cxxabiv121__vmi_class_type_infoE+16
	.quad	_ZTSN5boost10wrapexceptISt13runtime_errorEE
	.long	0
	.long	3
	.quad	_ZTIN5boost16exception_detail10clone_baseE
	.quad	2
	.quad	_ZTISt13runtime_error
	.quad	2050
	.quad	_ZTIN5boost9exceptionE
	.quad	6146
	.globl	_ZTSSt5arrayIcLy10EE
	.section	.rdata$_ZTSSt5arrayIcLy10EE,"dr"
	.linkonce same_size
	.align 16
_ZTSSt5arrayIcLy10EE:
	.ascii "St5arrayIcLy10EE\0"
	.globl	_ZTISt5arrayIcLy10EE
	.section	.rdata$_ZTISt5arrayIcLy10EE,"dr"
	.linkonce same_size
	.align 8
_ZTISt5arrayIcLy10EE:
	.quad	_ZTVN10__cxxabiv117__class_type_infoE+16
	.quad	_ZTSSt5arrayIcLy10EE
	.globl	_ZTSSt6vectorIcSaIcEE
	.section	.rdata$_ZTSSt6vectorIcSaIcEE,"dr"
	.linkonce same_size
	.align 16
_ZTSSt6vectorIcSaIcEE:
	.ascii "St6vectorIcSaIcEE\0"
	.globl	_ZTISt6vectorIcSaIcEE
	.section	.rdata$_ZTISt6vectorIcSaIcEE,"dr"
	.linkonce same_size
	.align 8
_ZTISt6vectorIcSaIcEE:
	.quad	_ZTVN10__cxxabiv121__vmi_class_type_infoE+16
	.quad	_ZTSSt6vectorIcSaIcEE
	.long	0
	.long	1
	.quad	_ZTISt12_Vector_baseIcSaIcEE
	.quad	0
	.globl	_ZTSSt6vectorIiSaIiEE
	.section	.rdata$_ZTSSt6vectorIiSaIiEE,"dr"
	.linkonce same_size
	.align 16
_ZTSSt6vectorIiSaIiEE:
	.ascii "St6vectorIiSaIiEE\0"
	.globl	_ZTISt6vectorIiSaIiEE
	.section	.rdata$_ZTISt6vectorIiSaIiEE,"dr"
	.linkonce same_size
	.align 8
_ZTISt6vectorIiSaIiEE:
	.quad	_ZTVN10__cxxabiv121__vmi_class_type_infoE+16
	.quad	_ZTSSt6vectorIiSaIiEE
	.long	0
	.long	1
	.quad	_ZTISt12_Vector_baseIiSaIiEE
	.quad	0
	.globl	_ZTVN5boost9exceptionE
	.section	.rdata$_ZTVN5boost9exceptionE,"dr"
	.linkonce same_size
	.align 8
_ZTVN5boost9exceptionE:
	.quad	0
	.quad	_ZTIN5boost9exceptionE
	.quad	__cxa_pure_virtual
	.quad	__cxa_pure_virtual
	.globl	_ZTVN5boost16exception_detail10clone_baseE
	.section	.rdata$_ZTVN5boost16exception_detail10clone_baseE,"dr"
	.linkonce same_size
	.align 8
_ZTVN5boost16exception_detail10clone_baseE:
	.quad	0
	.quad	_ZTIN5boost16exception_detail10clone_baseE
	.quad	__cxa_pure_virtual
	.quad	__cxa_pure_virtual
	.quad	0
	.quad	0
	.globl	_ZTVN5boost10wrapexceptISt13runtime_errorEE
	.section	.rdata$_ZTVN5boost10wrapexceptISt13runtime_errorEE,"dr"
	.linkonce same_size
	.align 8
_ZTVN5boost10wrapexceptISt13runtime_errorEE:
	.quad	0
	.quad	_ZTIN5boost10wrapexceptISt13runtime_errorEE
	.quad	_ZNK5boost10wrapexceptISt13runtime_errorE5cloneEv
	.quad	_ZNK5boost10wrapexceptISt13runtime_errorE7rethrowEv
	.quad	_ZN5boost10wrapexceptISt13runtime_errorED1Ev
	.quad	_ZN5boost10wrapexceptISt13runtime_errorED0Ev
	.quad	-8
	.quad	_ZTIN5boost10wrapexceptISt13runtime_errorEE
	.quad	_ZThn8_N5boost10wrapexceptISt13runtime_errorED1Ev
	.quad	_ZThn8_N5boost10wrapexceptISt13runtime_errorED0Ev
	.quad	_ZNKSt13runtime_error4whatEv
	.quad	-24
	.quad	_ZTIN5boost10wrapexceptISt13runtime_errorEE
	.quad	_ZThn24_N5boost10wrapexceptISt13runtime_errorED1Ev
	.quad	_ZThn24_N5boost10wrapexceptISt13runtime_errorED0Ev
	.globl	_ZZNK5boost9typeindex14stl_type_index11pretty_nameB5cxx11EvE14cvr_saver_name
	.section	.rdata$_ZZNK5boost9typeindex14stl_type_index11pretty_nameB5cxx11EvE14cvr_saver_name,"dr"
	.linkonce same_size
	.align 32
_ZZNK5boost9typeindex14stl_type_index11pretty_nameB5cxx11EvE14cvr_saver_name:
	.ascii "boost::typeindex::detail::cvr_saver<\0"
	.section .rdata,"dr"
	.align 8
.LC0:
	.quad	_ZTVN5boost10wrapexceptISt13runtime_errorEE+16
	.weak	__cxa_pure_virtual
	.text
.Letext0:
	.file 17 "E:/MSYS2/mingw64/include/corecrt.h"
	.file 18 "E:/MSYS2/mingw64/include/locale.h"
	.file 19 "E:/MSYS2/mingw64/include/wchar.h"
	.file 20 "E:/MSYS2/mingw64/include/c++/14.1.0/cwchar"
	.file 21 "E:/MSYS2/mingw64/include/c++/14.1.0/x86_64-w64-mingw32/bits/c++config.h"
	.file 22 "E:/MSYS2/mingw64/include/c++/14.1.0/type_traits"
	.file 23 "E:/MSYS2/mingw64/include/c++/14.1.0/bits/exception_ptr.h"
	.file 24 "E:/MSYS2/mingw64/include/c++/14.1.0/concepts"
	.file 25 "E:/MSYS2/mingw64/include/c++/14.1.0/bits/iterator_concepts.h"
	.file 26 "E:/MSYS2/mingw64/include/c++/14.1.0/compare"
	.file 27 "E:/MSYS2/mingw64/include/c++/14.1.0/bits/charconv.h"
	.file 28 "E:/MSYS2/mingw64/include/c++/14.1.0/bits/stl_iterator_base_types.h"
	.file 29 "E:/MSYS2/mingw64/include/c++/14.1.0/clocale"
	.file 30 "E:/MSYS2/mingw64/include/c++/14.1.0/debug/debug.h"
	.file 31 "E:/MSYS2/mingw64/include/c++/14.1.0/numbers"
	.file 32 "E:/MSYS2/mingw64/include/c++/14.1.0/string_view"
	.file 33 "E:/MSYS2/mingw64/include/c++/14.1.0/cstdlib"
	.file 34 "E:/MSYS2/mingw64/include/c++/14.1.0/cstdio"
	.file 35 "E:/MSYS2/mingw64/include/c++/14.1.0/initializer_list"
	.file 36 "E:/MSYS2/mingw64/include/c++/14.1.0/bits/ptr_traits.h"
	.file 37 "E:/MSYS2/mingw64/include/c++/14.1.0/cstddef"
	.file 38 "E:/MSYS2/mingw64/include/c++/14.1.0/bits/memory_resource.h"
	.file 39 "E:/MSYS2/mingw64/include/c++/14.1.0/bits/stringfwd.h"
	.file 40 "E:/MSYS2/mingw64/include/c++/14.1.0/system_error"
	.file 41 "E:/MSYS2/mingw64/include/c++/14.1.0/bits/ios_base.h"
	.file 42 "E:/MSYS2/mingw64/include/c++/14.1.0/cwctype"
	.file 43 "E:/MSYS2/mingw64/include/c++/14.1.0/iosfwd"
	.file 44 "E:/MSYS2/mingw64/include/c++/14.1.0/cstring"
	.file 45 "E:/MSYS2/mingw64/include/c++/14.1.0/source_location"
	.file 46 "E:/MSYS2/mingw64/include/c++/14.1.0/array"
	.file 47 "E:/MSYS2/mingw64/include/c++/14.1.0/bits/stl_vector.h"
	.file 48 "E:/MSYS2/mingw64/include/c++/14.1.0/bits/vector.tcc"
	.file 49 "E:/MSYS2/mingw64/include/c++/14.1.0/stdexcept"
	.file 50 "E:/MSYS2/mingw64/include/c++/14.1.0/bits/basic_ios.tcc"
	.file 51 "E:/MSYS2/mingw64/include/c++/14.1.0/bits/basic_ios.h"
	.file 52 "E:/MSYS2/mingw64/include/c++/14.1.0/bits/ostream_insert.h"
	.file 53 "E:/MSYS2/mingw64/include/c++/14.1.0/bits/postypes.h"
	.file 54 "E:/MSYS2/mingw64/include/c++/14.1.0/bits/functexcept.h"
	.file 55 "E:/MSYS2/mingw64/include/swprintf.inl"
	.file 56 "E:/MSYS2/mingw64/include/c++/14.1.0/bits/predefined_ops.h"
	.file 57 "E:/MSYS2/mingw64/include/c++/14.1.0/ext/alloc_traits.h"
	.file 58 "E:/MSYS2/mingw64/include/c++/14.1.0/bits/stl_iterator.h"
	.file 59 "E:/MSYS2/mingw64/include/stddef.h"
	.file 60 "E:/MSYS2/mingw64/include/stdio.h"
	.file 61 "E:/MSYS2/mingw64/include/stdlib.h"
	.file 62 "E:/MSYS2/mingw64/include/process.h"
	.file 63 "E:/MSYS2/mingw64/include/wctype.h"
	.file 64 "E:/MSYS2/mingw64/include/string.h"
	.file 65 "E:/MSYS2/mingw64/include/stdint.h"
	.file 66 "D:/Compiler/anaconda/Library/include/boost/config/detail/suffix.hpp"
	.file 67 "D:/Compiler/anaconda/Library/include/boost/cstdint.hpp"
	.file 68 "D:/Compiler/anaconda/Library/include/boost/assert/source_location.hpp"
	.file 69 "D:/Compiler/anaconda/Library/include/boost/current_function.hpp"
	.file 70 "D:/Compiler/anaconda/Library/include/boost/type_traits/integral_constant.hpp"
	.file 71 "E:/MSYS2/mingw64/include/c++/14.1.0/bits/cxxabi_init_exception.h"
	.file 72 "E:/MSYS2/mingw64/include/c++/14.1.0/cxxabi.h"
	.file 73 "E:/MSYS2/mingw64/include/c++/14.1.0/new"
	.file 74 "E:/MSYS2/mingw64/include/c++/14.1.0/iostream"
	.file 75 "E:/MSYS2/mingw64/include/c++/14.1.0/bits/ranges_cmp.h"
	.section	.rdata$.refptr._ZSt4cout, "dr"
	.globl	.refptr._ZSt4cout
	.linkonce	discard
.refptr._ZSt4cout:
	.quad	_ZSt4cout
